ccopy_reg
_reconstructor
p1
(caxelrod.tournament_manager
DeterministicCache
p2
c__builtin__
object
p3
NtRp4
(dp5
S'turns'
p6
I200
sS'cache'
p7
(dp8
(caxelrod.strategies.titfortat
TitForTat
p9
caxelrod.strategies.mindcontrol
MindBender
p10
tp11
(I0
I1000
tp12
s(caxelrod.strategies.retaliate
Retaliate
p13
caxelrod.strategies.titfortat
TwoTitsForTat
p14
tp15
(I600
I600
tp16
s(caxelrod.strategies.backstabber
BackStabber
p17
caxelrod.strategies.mindreader
MindReader
p18
tp19
(I0
I1000
tp20
s(caxelrod.strategies.defector
Defector
p21
caxelrod.strategies.hunter
MathConstantHunter
p22
tp23
(I1000
I0
tp24
s(caxelrod.strategies.alternator
Alternator
p25
caxelrod.strategies.cooperator
TrickyCooperator
p26
tp27
(I800
I300
tp28
s(caxelrod.strategies.gobymajority
GoByMajority40
p29
g22
tp30
(I600
I600
tp31
s(caxelrod.strategies.retaliate
LimitedRetaliate2
p32
g14
tp33
(I600
I600
tp34
s(caxelrod.strategies.axelrod_tournaments
Shubik
p35
caxelrod.strategies.titfortat
SuspiciousTitForTat
p36
tp37
(I206
I206
tp38
s(caxelrod.strategies.hunter
CooperatorHunter
p39
caxelrod.strategies.gobymajority
GoByMajority
p40
tp41
(I602
I587
tp42
s(caxelrod.strategies.gobymajority
GoByMajority20
p43
caxelrod.strategies.hunter
RandomHunter
p44
tp45
(I600
I600
tp46
s(g35
g35
tp47
(I600
I600
tp48
s(caxelrod.strategies.hunter
AlternatorHunter
p49
caxelrod.strategies.gobymajority
GoByMajority10
p50
tp51
(I600
I600
tp52
s(caxelrod.strategies.mathematicalconstants
Golden
p53
g26
tp54
(I998
I3
tp55
s(caxelrod.strategies.mathematicalconstants
Pi
p56
caxelrod.strategies.retaliate
Retaliate2
p57
tp58
(I385
I730
tp59
s(g9
caxelrod.strategies.mindreader
ProtectedMindReader
p60
tp61
(I0
I1000
tp62
s(g49
caxelrod.strategies.defector
TrickyDefector
p63
tp64
(I0
I1000
tp65
s(g9
caxelrod.strategies.titfortat
HardTitFor2Tats
p66
tp67
(I600
I600
tp68
s(caxelrod.strategies.hunter
DefectorHunter
p69
g53
tp70
(I3
I998
tp71
s(caxelrod.strategies.titfortat
AntiTitForTat
p72
caxelrod.strategies.grudger
ForgetfulGrudger
p73
tp74
(I144
I824
tp75
s(g17
caxelrod.strategies.geller
GellerDefector
p76
tp77
(I596
I596
tp78
s(g40
caxelrod.strategies.gobymajority
GoByMajority5
p79
tp80
(I600
I600
tp81
s(g9
g40
tp82
(I600
I600
tp83
s(caxelrod.strategies.forgiver
ForgivingTitForTat
p84
caxelrod.strategies.geller
GellerCooperator
p85
tp86
(I600
I600
tp87
s(g43
g13
tp88
(I600
I600
tp89
s(caxelrod.strategies.punisher
InversePunisher
p90
caxelrod.strategies.titfortat
TitFor2Tats
p91
tp92
(I600
I600
tp93
s(caxelrod.strategies.appeaser
Appeaser
p94
g43
tp95
(I600
I600
tp96
s(caxelrod.strategies.grumpy
Grumpy
p97
caxelrod.strategies.grudger
OppositeGrudger
p98
tp99
(I597
I602
tp100
s(g26
g10
tp101
(I0
I1000
tp102
s(g39
g35
tp103
(I597
I597
tp104
s(caxelrod.strategies.grudger
Davis
p105
g105
tp106
(I600
I600
tp107
s(g22
g56
tp108
(I921
I96
tp109
s(g29
g13
tp110
(I600
I600
tp111
s(g94
g32
tp112
(I600
I600
tp113
s(g13
caxelrod.strategies.mindcontrol
MindWarper
p114
tp115
(I0
I1000
tp116
s(g40
g10
tp117
(I0
I1000
tp118
s(g39
caxelrod.strategies.grudger
Grudger
p119
tp120
(I18
I983
tp121
s(g17
g53
tp122
(I974
I24
tp123
s(g69
g50
tp124
(I600
I600
tp125
s(caxelrod.strategies.titfortat
HardTitForTat
p126
g85
tp127
(I600
I600
tp128
s(g26
g60
tp129
(I0
I1000
tp130
s(g69
g97
tp131
(I600
I600
tp132
s(caxelrod.strategies.retaliate
LimitedRetaliate3
p133
g57
tp134
(I600
I600
tp135
s(caxelrod.strategies.titfortat
Bully
p136
caxelrod.strategies.forgiver
Forgiver
p137
tp138
(I87
I892
tp139
s(g136
g40
tp140
(I468
I463
tp141
s(g105
g22
tp142
(I600
I600
tp143
s(caxelrod.strategies.cooperator
Cooperator
p144
caxelrod.strategies.retaliate
LimitedRetaliate
p145
tp146
(I600
I600
tp147
s(g90
g44
tp148
(I600
I600
tp149
s(g9
g94
tp150
(I600
I600
tp151
s(g49
g90
tp152
(I600
I600
tp153
s(g105
caxelrod.strategies.hunter
MetaHunter
p154
tp155
(I600
I600
tp156
s(g84
g44
tp157
(I600
I600
tp158
s(g50
g66
tp159
(I600
I600
tp160
s(g85
caxelrod.strategies.mindcontrol
MindController
p161
tp162
(I0
I1000
tp163
s(caxelrod.strategies.oncebitten
OnceBitten
p164
g114
tp165
(I0
I1000
tp166
s(g145
caxelrod.strategies.titfortat
SneakyTitForTat
p167
tp168
(I609
I144
tp169
s(g76
g60
tp170
(I0
I1000
tp171
s(g72
g69
tp172
(I998
I3
tp173
s(g43
caxelrod.strategies.darwin
Darwin
p174
tp175
(I600
I600
tp176
s(g136
g91
tp177
(I560
I360
tp178
s(g53
g53
tp179
(I466
I466
tp180
s(g133
g13
tp181
(I600
I600
tp182
s(g73
g53
tp183
(I801
I261
tp184
s(g90
g18
tp185
(I0
I1000
tp186
s(g57
caxelrod.strategies.axelrod_tournaments
Tester
p187
tp188
(I203
I203
tp189
s(g53
g14
tp190
(I434
I599
tp191
s(g13
g26
tp192
(I735
I330
tp193
s(g39
g97
tp194
(I559
I599
tp195
s(g98
g56
tp196
(I365
I755
tp197
s(g17
g32
tp198
(I600
I595
tp199
s(g144
g14
tp200
(I600
I600
tp201
s(g32
caxelrod.strategies.punisher
Punisher
p202
tp203
(I600
I600
tp204
s(g32
g85
tp205
(I600
I600
tp206
s(g79
g98
tp207
(I599
I599
tp208
s(g105
g90
tp209
(I600
I600
tp210
s(g72
g136
tp211
(I0
I1000
tp212
s(caxelrod.strategies.backstabber
DoubleCrosser
p213
g91
tp214
(I604
I594
tp215
s(g43
g90
tp216
(I600
I600
tp217
s(g36
caxelrod.strategies.memoryone
WinStayLoseShift
p218
tp219
(I401
I401
tp220
s(g9
g36
tp221
(I500
I500
tp222
s(g29
g14
tp223
(I600
I600
tp224
s(g40
g174
tp225
(I600
I600
tp226
s(g29
caxelrod.strategies.mathematicalconstants
e
p227
tp228
(I314
I784
tp229
s(g25
g167
tp230
(I650
I400
tp231
s(g187
g10
tp232
(I1
I996
tp233
s(g218
g60
tp234
(I0
I1000
tp235
s(caxelrod.strategies.retaliate
Retaliate3
p236
g10
tp237
(I0
I1000
tp238
s(g32
g236
tp239
(I600
I600
tp240
s(g119
g114
tp241
(I0
I1000
tp242
s(caxelrod.strategies.oncebitten
FoolMeOnce
p243
g43
tp244
(I600
I600
tp245
s(g17
g213
tp246
(I596
I596
tp247
s(g66
g164
tp248
(I600
I600
tp249
s(caxelrod.strategies.grudger
Aggravater
p250
g85
tp251
(I200
I200
tp252
s(g105
g60
tp253
(I0
I1000
tp254
s(g144
g137
tp255
(I600
I600
tp256
s(g84
g84
tp257
(I600
I600
tp258
s(g13
g63
tp259
(I736
I151
tp260
s(g69
g126
tp261
(I600
I600
tp262
s(g9
g35
tp263
(I600
I600
tp264
s(g137
g84
tp265
(I600
I600
tp266
s(g167
g76
tp267
(I596
I596
tp268
s(g73
g161
tp269
(I0
I1000
tp270
s(g90
g218
tp271
(I600
I600
tp272
s(g43
g167
tp273
(I592
I597
tp274
s(g69
g145
tp275
(I600
I600
tp276
s(g49
g154
tp277
(I600
I600
tp278
s(g40
g187
tp279
(I500
I500
tp280
s(g13
g161
tp281
(I0
I1000
tp282
s(g126
g35
tp283
(I600
I600
tp284
s(g79
g126
tp285
(I600
I600
tp286
s(g49
g22
tp287
(I600
I600
tp288
s(g243
g85
tp289
(I600
I600
tp290
s(g213
g236
tp291
(I600
I595
tp292
s(g94
g154
tp293
(I600
I600
tp294
s(g44
g36
tp295
(I582
I587
tp296
s(g79
g218
tp297
(I600
I600
tp298
s(g56
g85
tp299
(I520
I520
tp300
s(g243
g98
tp301
(I597
I602
tp302
s(g40
g14
tp303
(I600
I600
tp304
s(g14
g174
tp305
(I600
I600
tp306
s(g21
g174
tp307
(I1000
I0
tp308
s(g72
g164
tp309
(I210
I760
tp310
s(g72
g57
tp311
(I117
I857
tp312
s(g187
g26
tp313
(I557
I552
tp314
s(g91
g91
tp315
(I600
I600
tp316
s(g50
g26
tp317
(I498
I568
tp318
s(g105
g44
tp319
(I600
I600
tp320
s(g90
g22
tp321
(I600
I600
tp322
s(g105
g174
tp323
(I600
I600
tp324
s(g98
g227
tp325
(I305
I795
tp326
s(g167
g36
tp327
(I597
I602
tp328
s(g9
g90
tp329
(I600
I600
tp330
s(g25
g236
tp331
(I123
I593
tp332
s(g250
g56
tp333
(I985
I20
tp334
s(g49
g94
tp335
(I600
I600
tp336
s(g57
g85
tp337
(I600
I600
tp338
s(g236
g227
tp339
(I783
I308
tp340
s(g40
g35
tp341
(I600
I600
tp342
s(g126
g36
tp343
(I203
I203
tp344
s(g119
g97
tp345
(I600
I600
tp346
s(g105
g227
tp347
(I949
I49
tp348
s(g21
g26
tp349
(I1000
I0
tp350
s(g154
g187
tp351
(I237
I237
tp352
s(g63
g161
tp353
(I0
I1000
tp354
s(g49
g243
tp355
(I600
I600
tp356
s(g40
g218
tp357
(I600
I600
tp358
s(g39
g44
tp359
(I33
I968
tp360
s(g119
g10
tp361
(I0
I1000
tp362
s(g14
g76
tp363
(I600
I600
tp364
s(g136
g167
tp365
(I452
I447
tp366
s(g26
g85
tp367
(I564
I564
tp368
s(g126
g154
tp369
(I600
I600
tp370
s(g72
g14
tp371
(I360
I560
tp372
s(g21
g250
tp373
(I200
I200
tp374
s(g53
g154
tp375
(I39
I959
tp376
s(g133
g164
tp377
(I600
I600
tp378
s(g50
g32
tp379
(I600
I600
tp380
s(g144
g49
tp381
(I600
I600
tp382
s(g56
g218
tp383
(I29
I974
tp384
s(g25
g250
tp385
(I100
I600
tp386
s(g136
g202
tp387
(I222
I727
tp388
s(g53
g32
tp389
(I268
I788
tp390
s(g40
g36
tp391
(I500
I500
tp392
s(g243
g90
tp393
(I600
I600
tp394
s(g40
g43
tp395
(I600
I600
tp396
s(g39
g91
tp397
(I599
I594
tp398
s(g79
g145
tp399
(I600
I600
tp400
s(g97
g91
tp401
(I600
I600
tp402
s(g164
g187
tp403
(I597
I602
tp404
s(g79
g18
tp405
(I0
I1000
tp406
s(g44
g18
tp407
(I0
I1000
tp408
s(g213
g167
tp409
(I588
I123
tp410
s(g29
g202
tp411
(I600
I600
tp412
s(g94
g36
tp413
(I401
I401
tp414
s(g72
g40
tp415
(I470
I465
tp416
s(g69
g22
tp417
(I600
I600
tp418
s(g136
g243
tp419
(I11
I986
tp420
s(g39
g202
tp421
(I588
I603
tp422
s(g84
g13
tp423
(I600
I600
tp424
s(g50
g90
tp425
(I600
I600
tp426
s(g154
g174
tp427
(I600
I600
tp428
s(g227
g10
tp429
(I0
I1000
tp430
s(g43
g66
tp431
(I600
I600
tp432
s(g250
g26
tp433
(I971
I36
tp434
s(g98
g60
tp435
(I0
I1000
tp436
s(g97
g133
tp437
(I600
I600
tp438
s(g154
g218
tp439
(I600
I600
tp440
s(g84
g56
tp441
(I559
I559
tp442
s(g94
g79
tp443
(I600
I600
tp444
s(g14
g227
tp445
(I631
I466
tp446
s(g105
g35
tp447
(I600
I600
tp448
s(g105
g73
tp449
(I600
I600
tp450
s(g145
g76
tp451
(I600
I600
tp452
s(g213
g243
tp453
(I604
I594
tp454
s(g53
g187
tp455
(I498
I503
tp456
s(g40
g98
tp457
(I599
I599
tp458
s(g56
g187
tp459
(I557
I562
tp460
s(g236
g35
tp461
(I600
I600
tp462
s(g164
g63
tp463
(I646
I236
tp464
s(g136
g26
tp465
(I1000
I0
tp466
s(g43
g161
tp467
(I0
I1000
tp468
s(g57
g218
tp469
(I600
I600
tp470
s(g98
g63
tp471
(I200
I200
tp472
s(g21
g218
tp473
(I600
I100
tp474
s(g105
g26
tp475
(I955
I45
tp476
s(g44
g167
tp477
(I582
I132
tp478
s(g126
g66
tp479
(I600
I600
tp480
s(g98
g76
tp481
(I200
I200
tp482
s(g98
g161
tp483
(I0
I1000
tp484
s(g56
g18
tp485
(I0
I1000
tp486
s(g69
g56
tp487
(I3
I998
tp488
s(g44
g57
tp489
(I600
I600
tp490
s(g137
g98
tp491
(I615
I575
tp492
s(g36
g63
tp493
(I200
I200
tp494
s(g29
g97
tp495
(I600
I600
tp496
s(g94
g18
tp497
(I0
I1000
tp498
s(g21
g35
tp499
(I204
I199
tp500
s(g144
g57
tp501
(I600
I600
tp502
s(g213
g133
tp503
(I600
I595
tp504
s(g49
g36
tp505
(I597
I602
tp506
s(g97
g145
tp507
(I600
I600
tp508
s(g17
g69
tp509
(I604
I594
tp510
s(g49
g17
tp511
(I594
I604
tp512
s(g97
g18
tp513
(I0
I1000
tp514
s(g161
g18
tp515
(I600
I600
tp516
s(g50
g167
tp517
(I592
I597
tp518
s(g36
g10
tp519
(I1
I996
tp520
s(g49
g236
tp521
(I600
I600
tp522
s(g26
g76
tp523
(I564
I564
tp524
s(g17
g43
tp525
(I604
I594
tp526
s(g25
g90
tp527
(I171
I581
tp528
s(g53
g63
tp529
(I0
I1000
tp530
s(g32
g187
tp531
(I239
I239
tp532
s(g126
g164
tp533
(I600
I600
tp534
s(g21
g90
tp535
(I204
I199
tp536
s(g17
g56
tp537
(I974
I24
tp538
s(g97
g57
tp539
(I600
I600
tp540
s(g73
g167
tp541
(I606
I141
tp542
s(g84
g114
tp543
(I0
I1000
tp544
s(g98
g57
tp545
(I563
I623
tp546
s(g97
g114
tp547
(I0
I1000
tp548
s(g29
g66
tp549
(I600
I600
tp550
s(g126
g174
tp551
(I600
I600
tp552
s(g243
g154
tp553
(I600
I600
tp554
s(g94
g57
tp555
(I600
I600
tp556
s(g79
g26
tp557
(I540
I540
tp558
s(g17
g136
tp559
(I976
I21
tp560
s(g213
g40
tp561
(I604
I594
tp562
s(g21
g187
tp563
(I200
I200
tp564
s(g63
g85
tp565
(I200
I200
tp566
s(g25
g187
tp567
(I503
I498
tp568
s(g29
g29
tp569
(I600
I600
tp570
s(g39
g60
tp571
(I0
I1000
tp572
s(g43
g76
tp573
(I600
I600
tp574
s(g227
g18
tp575
(I0
I1000
tp576
s(g39
g32
tp577
(I561
I621
tp578
s(g164
g10
tp579
(I0
I1000
tp580
s(g21
g18
tp581
(I0
I1000
tp582
s(g32
g174
tp583
(I600
I600
tp584
s(g69
g18
tp585
(I0
I1000
tp586
s(g32
g161
tp587
(I0
I1000
tp588
s(g137
g50
tp589
(I600
I600
tp590
s(g9
g17
tp591
(I595
I600
tp592
s(g145
g202
tp593
(I600
I600
tp594
s(g36
g85
tp595
(I200
I200
tp596
s(g79
g236
tp597
(I600
I600
tp598
s(g144
g79
tp599
(I600
I600
tp600
s(g9
g145
tp601
(I600
I600
tp602
s(g69
g213
tp603
(I594
I604
tp604
s(g213
g126
tp605
(I600
I595
tp606
s(g32
g164
tp607
(I600
I600
tp608
s(g133
g35
tp609
(I600
I600
tp610
s(g137
g236
tp611
(I600
I600
tp612
s(g43
g227
tp613
(I314
I784
tp614
s(g22
g202
tp615
(I600
I600
tp616
s(g9
g72
tp617
(I450
I450
tp618
s(g29
g126
tp619
(I600
I600
tp620
s(g56
g10
tp621
(I0
I1000
tp622
s(g39
g26
tp623
(I9
I994
tp624
s(g21
g126
tp625
(I204
I199
tp626
s(g49
g40
tp627
(I600
I600
tp628
s(g50
g154
tp629
(I600
I600
tp630
s(g94
g10
tp631
(I0
I1000
tp632
s(g243
g133
tp633
(I600
I600
tp634
s(g144
g250
tp635
(I591
I606
tp636
s(g13
g218
tp637
(I600
I600
tp638
s(g243
g66
tp639
(I600
I600
tp640
s(g57
g91
tp641
(I600
I600
tp642
s(g213
g60
tp643
(I0
I1000
tp644
s(g213
g90
tp645
(I600
I595
tp646
s(g44
g13
tp647
(I600
I600
tp648
s(g49
g97
tp649
(I600
I600
tp650
s(g69
g91
tp651
(I600
I600
tp652
s(g25
g43
tp653
(I800
I300
tp654
s(g137
g44
tp655
(I600
I600
tp656
s(g164
g36
tp657
(I597
I602
tp658
s(g154
g35
tp659
(I600
I600
tp660
s(g94
g44
tp661
(I600
I600
tp662
s(g154
g13
tp663
(I600
I600
tp664
s(g126
g218
tp665
(I600
I600
tp666
s(g243
g56
tp667
(I984
I14
tp668
s(g136
g119
tp669
(I6
I991
tp670
s(g119
g66
tp671
(I600
I600
tp672
s(g126
g26
tp673
(I608
I483
tp674
s(g66
g133
tp675
(I600
I600
tp676
s(g50
g227
tp677
(I314
I784
tp678
s(g105
g53
tp679
(I949
I49
tp680
s(g21
g94
tp681
(I600
I100
tp682
s(g13
g236
tp683
(I600
I600
tp684
s(g243
g60
tp685
(I0
I1000
tp686
s(g119
g13
tp687
(I600
I600
tp688
s(g79
g167
tp689
(I591
I591
tp690
s(g22
g164
tp691
(I600
I600
tp692
s(g136
g50
tp693
(I504
I434
tp694
s(g50
g114
tp695
(I0
I1000
tp696
s(g69
g167
tp697
(I6
I996
tp698
s(g137
g40
tp699
(I600
I600
tp700
s(g84
g91
tp701
(I600
I600
tp702
s(g21
g10
tp703
(I1
I996
tp704
s(g167
g10
tp705
(I0
I1000
tp706
s(g98
g236
tp707
(I542
I637
tp708
s(g164
g35
tp709
(I600
I600
tp710
s(g164
g202
tp711
(I600
I600
tp712
s(g145
g227
tp713
(I751
I346
tp714
s(g73
g126
tp715
(I600
I600
tp716
s(g133
g167
tp717
(I594
I404
tp718
s(g39
g114
tp719
(I0
I1000
tp720
s(g43
g119
tp721
(I600
I600
tp722
s(g56
g14
tp723
(I494
I624
tp724
s(g49
g35
tp725
(I600
I600
tp726
s(g43
g26
tp727
(I496
I546
tp728
s(g13
g85
tp729
(I600
I600
tp730
s(g76
g161
tp731
(I0
I1000
tp732
s(g213
g50
tp733
(I604
I594
tp734
s(g213
g227
tp735
(I974
I24
tp736
s(g133
g22
tp737
(I600
I600
tp738
s(g144
g94
tp739
(I600
I600
tp740
s(g94
g243
tp741
(I600
I600
tp742
s(g133
g154
tp743
(I600
I600
tp744
s(g43
g56
tp745
(I374
I744
tp746
s(g49
g114
tp747
(I0
I1000
tp748
s(g73
g137
tp749
(I600
I600
tp750
s(g105
g218
tp751
(I600
I600
tp752
s(g126
g63
tp753
(I525
I275
tp754
s(g72
g53
tp755
(I986
I11
tp756
s(g250
g94
tp757
(I600
I100
tp758
s(g126
g13
tp759
(I600
I600
tp760
s(g56
g35
tp761
(I421
I696
tp762
s(g50
g29
tp763
(I600
I600
tp764
s(g21
g66
tp765
(I208
I198
tp766
s(g53
g227
tp767
(I860
I205
tp768
s(g69
g164
tp769
(I600
I600
tp770
s(g84
g50
tp771
(I600
I600
tp772
s(g69
g161
tp773
(I0
I1000
tp774
s(g94
g137
tp775
(I600
I600
tp776
s(g40
g133
tp777
(I600
I600
tp778
s(g119
g26
tp779
(I985
I15
tp780
s(g32
g98
tp781
(I623
I563
tp782
s(g250
g227
tp783
(I989
I14
tp784
s(g40
g66
tp785
(I600
I600
tp786
s(g32
g227
tp787
(I760
I335
tp788
s(g94
g136
tp789
(I265
I600
tp790
s(g250
g91
tp791
(I208
I198
tp792
s(g72
g85
tp793
(I400
I400
tp794
s(g105
g213
tp795
(I595
I600
tp796
s(g43
g63
tp797
(I451
I421
tp798
s(g17
g60
tp799
(I0
I1000
tp800
s(g21
g14
tp801
(I204
I199
tp802
s(g97
g90
tp803
(I600
I600
tp804
s(g227
g85
tp805
(I500
I500
tp806
s(g9
g76
tp807
(I600
I600
tp808
s(g84
g164
tp809
(I600
I600
tp810
s(g137
g90
tp811
(I600
I600
tp812
s(g43
g22
tp813
(I600
I600
tp814
s(g213
g85
tp815
(I596
I596
tp816
s(g40
g164
tp817
(I600
I600
tp818
s(g250
g40
tp819
(I204
I199
tp820
s(g79
g79
tp821
(I600
I600
tp822
s(g53
g161
tp823
(I0
I1000
tp824
s(g202
g60
tp825
(I0
I1000
tp826
s(g145
g85
tp827
(I600
I600
tp828
s(g243
g26
tp829
(I980
I20
tp830
s(g32
g36
tp831
(I239
I239
tp832
s(g69
g32
tp833
(I600
I600
tp834
s(g72
g35
tp835
(I162
I802
tp836
s(g73
g60
tp837
(I0
I1000
tp838
s(g73
g50
tp839
(I600
I600
tp840
s(g119
g187
tp841
(I203
I203
tp842
s(g79
g36
tp843
(I500
I500
tp844
s(g72
g119
tp845
(I9
I989
tp846
s(g94
g145
tp847
(I600
I600
tp848
s(g105
g40
tp849
(I600
I600
tp850
s(g40
g114
tp851
(I0
I1000
tp852
s(g105
g133
tp853
(I600
I600
tp854
s(g39
g79
tp855
(I595
I595
tp856
s(g137
g154
tp857
(I600
I600
tp858
s(g73
g98
tp859
(I619
I569
tp860
s(g63
g174
tp861
(I1000
I0
tp862
s(g167
g227
tp863
(I549
I549
tp864
s(g94
g174
tp865
(I600
I600
tp866
s(g236
g91
tp867
(I600
I600
tp868
s(g69
g69
tp869
(I600
I600
tp870
s(g133
g218
tp871
(I600
I600
tp872
s(g17
g174
tp873
(I604
I594
tp874
s(g187
g91
tp875
(I602
I597
tp876
s(g73
g164
tp877
(I600
I600
tp878
s(g105
g91
tp879
(I600
I600
tp880
s(g63
g60
tp881
(I0
I1000
tp882
s(g137
g161
tp883
(I0
I1000
tp884
s(g119
g90
tp885
(I600
I600
tp886
s(g21
g39
tp887
(I1000
I0
tp888
s(g29
g18
tp889
(I0
I1000
tp890
s(g144
g43
tp891
(I600
I600
tp892
s(g66
g161
tp893
(I0
I1000
tp894
s(g243
g13
tp895
(I600
I600
tp896
s(g213
g73
tp897
(I600
I595
tp898
s(g145
g22
tp899
(I600
I600
tp900
s(g236
g174
tp901
(I600
I600
tp902
s(g144
g114
tp903
(I0
I1000
tp904
s(g84
g79
tp905
(I600
I600
tp906
s(g202
g18
tp907
(I0
I1000
tp908
s(g53
g133
tp909
(I244
I814
tp910
s(g29
g10
tp911
(I0
I1000
tp912
s(g17
g57
tp913
(I600
I595
tp914
s(g9
g167
tp915
(I597
I597
tp916
s(g236
g63
tp917
(I848
I88
tp918
s(g43
g85
tp919
(I600
I600
tp920
s(g9
g84
tp921
(I600
I600
tp922
s(g136
g10
tp923
(I1
I996
tp924
s(g25
g137
tp925
(I107
I597
tp926
s(g44
g85
tp927
(I600
I600
tp928
s(g57
g35
tp929
(I600
I600
tp930
s(g36
g227
tp931
(I552
I547
tp932
s(g9
g29
tp933
(I600
I600
tp934
s(g145
g35
tp935
(I600
I600
tp936
s(g73
g187
tp937
(I203
I203
tp938
s(g144
g85
tp939
(I600
I600
tp940
s(g94
g69
tp941
(I600
I600
tp942
s(g29
g218
tp943
(I600
I600
tp944
s(g25
g136
tp945
(I397
I402
tp946
s(g145
g187
tp947
(I230
I230
tp948
s(g72
g26
tp949
(I998
I3
tp950
s(g167
g60
tp951
(I0
I1000
tp952
s(g218
g18
tp953
(I0
I1000
tp954
s(g137
g57
tp955
(I600
I600
tp956
s(g56
g161
tp957
(I0
I1000
tp958
s(g66
g56
tp959
(I374
I744
tp960
s(g17
g35
tp961
(I600
I595
tp962
s(g22
g161
tp963
(I0
I1000
tp964
s(g90
g35
tp965
(I201
I206
tp966
s(g21
g97
tp967
(I244
I189
tp968
s(g137
g36
tp969
(I203
I203
tp970
s(g43
g36
tp971
(I587
I592
tp972
s(g22
g218
tp973
(I600
I600
tp974
s(g66
g85
tp975
(I600
I600
tp976
s(g164
g18
tp977
(I0
I1000
tp978
s(g243
g97
tp979
(I600
I600
tp980
s(g119
g85
tp981
(I600
I600
tp982
s(g63
g227
tp983
(I1000
I0
tp984
s(g213
g84
tp985
(I604
I594
tp986
s(g137
g53
tp987
(I773
I273
tp988
s(g213
g53
tp989
(I974
I24
tp990
s(g144
g72
tp991
(I3
I998
tp992
s(g94
g66
tp993
(I600
I600
tp994
s(g22
g63
tp995
(I0
I1000
tp996
s(g25
g49
tp997
(I114
I594
tp998
s(g22
g76
tp999
(I600
I600
tp1000
s(g25
g94
tp1001
(I450
I450
tp1002
s(g72
g126
tp1003
(I305
I630
tp1004
s(g144
g56
tp1005
(I3
I998
tp1006
s(g250
g39
tp1007
(I606
I591
tp1008
s(g69
g35
tp1009
(I600
I600
tp1010
s(g35
g218
tp1011
(I600
I600
tp1012
s(g13
g91
tp1013
(I600
I600
tp1014
s(g57
g174
tp1015
(I600
I600
tp1016
s(g90
g236
tp1017
(I600
I600
tp1018
s(g144
g17
tp1019
(I594
I604
tp1020
s(g49
g14
tp1021
(I600
I600
tp1022
s(g25
g119
tp1023
(I107
I597
tp1024
s(g73
g91
tp1025
(I600
I600
tp1026
s(g91
g26
tp1027
(I513
I588
tp1028
s(g44
g161
tp1029
(I0
I1000
tp1030
s(g84
g97
tp1031
(I600
I600
tp1032
s(g66
g187
tp1033
(I597
I602
tp1034
s(g243
g73
tp1035
(I600
I600
tp1036
s(g243
g53
tp1037
(I984
I14
tp1038
s(g73
g26
tp1039
(I735
I330
tp1040
s(g154
g114
tp1041
(I0
I1000
tp1042
s(g119
g22
tp1043
(I600
I600
tp1044
s(g10
g114
tp1045
(I1000
I0
tp1046
s(g94
g202
tp1047
(I600
I600
tp1048
s(g73
g66
tp1049
(I600
I600
tp1050
s(g164
g167
tp1051
(I593
I578
tp1052
s(g119
g154
tp1053
(I600
I600
tp1054
s(g137
g18
tp1055
(I0
I1000
tp1056
s(g164
g57
tp1057
(I600
I600
tp1058
s(g25
g57
tp1059
(I135
I590
tp1060
s(g236
g218
tp1061
(I600
I600
tp1062
s(g126
g167
tp1063
(I595
I110
tp1064
s(g73
g202
tp1065
(I600
I600
tp1066
s(g94
g187
tp1067
(I401
I401
tp1068
s(g145
g145
tp1069
(I600
I600
tp1070
s(g18
g114
tp1071
(I600
I600
tp1072
s(g105
g10
tp1073
(I0
I1000
tp1074
s(g32
g133
tp1075
(I600
I600
tp1076
s(g136
g32
tp1077
(I114
I859
tp1078
s(g137
g187
tp1079
(I203
I203
tp1080
s(g97
g187
tp1081
(I597
I602
tp1082
s(g40
g227
tp1083
(I314
I784
tp1084
s(g90
g174
tp1085
(I600
I600
tp1086
s(g39
g22
tp1087
(I173
I858
tp1088
s(g250
g250
tp1089
(I200
I200
tp1090
s(g145
g10
tp1091
(I0
I1000
tp1092
s(g25
g144
tp1093
(I800
I300
tp1094
s(g22
g98
tp1095
(I981
I26
tp1096
s(g72
g90
tp1097
(I99
I879
tp1098
s(g72
g133
tp1099
(I104
I864
tp1100
s(g119
g227
tp1101
(I989
I9
tp1102
s(g25
g105
tp1103
(I135
I585
tp1104
s(g66
g227
tp1105
(I314
I784
tp1106
s(g21
g29
tp1107
(I204
I199
tp1108
s(g43
g53
tp1109
(I408
I653
tp1110
s(g17
g202
tp1111
(I600
I595
tp1112
s(g40
g97
tp1113
(I600
I600
tp1114
s(g136
g14
tp1115
(I360
I560
tp1116
s(g145
g18
tp1117
(I0
I1000
tp1118
s(g145
g13
tp1119
(I600
I600
tp1120
s(g69
g44
tp1121
(I600
I600
tp1122
s(g22
g114
tp1123
(I0
I1000
tp1124
s(g94
g63
tp1125
(I100
I600
tp1126
s(g144
g227
tp1127
(I3
I998
tp1128
s(g90
g76
tp1129
(I600
I600
tp1130
s(g49
g26
tp1131
(I9
I994
tp1132
s(g137
g218
tp1133
(I600
I600
tp1134
s(g164
g174
tp1135
(I600
I600
tp1136
s(g79
g161
tp1137
(I0
I1000
tp1138
s(g202
g14
tp1139
(I600
I600
tp1140
s(g26
g227
tp1141
(I3
I998
tp1142
s(g97
g126
tp1143
(I600
I600
tp1144
s(g72
g72
tp1145
(I400
I400
tp1146
s(g50
g13
tp1147
(I600
I600
tp1148
s(g167
g14
tp1149
(I337
I662
tp1150
s(g84
g236
tp1151
(I600
I600
tp1152
s(g105
g85
tp1153
(I600
I600
tp1154
s(g39
g36
tp1155
(I597
I602
tp1156
s(g213
g63
tp1157
(I968
I23
tp1158
s(g90
g10
tp1159
(I0
I1000
tp1160
s(g94
g29
tp1161
(I600
I600
tp1162
s(g22
g91
tp1163
(I600
I600
tp1164
s(g57
g227
tp1165
(I760
I335
tp1166
s(g25
g22
tp1167
(I128
I588
tp1168
s(g53
g10
tp1169
(I0
I1000
tp1170
s(g145
g161
tp1171
(I0
I1000
tp1172
s(g50
g164
tp1173
(I600
I600
tp1174
s(g90
g145
tp1175
(I600
I600
tp1176
s(g98
g98
tp1177
(I200
I200
tp1178
s(g73
g218
tp1179
(I600
I600
tp1180
s(g63
g76
tp1181
(I200
I200
tp1182
s(g69
g133
tp1183
(I600
I600
tp1184
s(g72
g236
tp1185
(I81
I901
tp1186
s(g40
g161
tp1187
(I0
I1000
tp1188
s(g164
g44
tp1189
(I600
I600
tp1190
s(g17
g105
tp1191
(I600
I595
tp1192
s(g250
g73
tp1193
(I204
I199
tp1194
s(g36
g114
tp1195
(I0
I1000
tp1196
s(g105
g97
tp1197
(I600
I600
tp1198
s(g17
g50
tp1199
(I604
I594
tp1200
s(g144
g84
tp1201
(I600
I600
tp1202
s(g79
g56
tp1203
(I379
I739
tp1204
s(g17
g66
tp1205
(I604
I594
tp1206
s(g17
g63
tp1207
(I968
I23
tp1208
s(g97
g13
tp1209
(I600
I600
tp1210
s(g9
g13
tp1211
(I600
I600
tp1212
s(g97
g161
tp1213
(I0
I1000
tp1214
s(g9
g63
tp1215
(I364
I369
tp1216
s(g236
g14
tp1217
(I600
I600
tp1218
s(g9
g32
tp1219
(I600
I600
tp1220
s(g202
g13
tp1221
(I600
I600
tp1222
s(g137
g66
tp1223
(I600
I600
tp1224
s(g25
g243
tp1225
(I114
I594
tp1226
s(g66
g66
tp1227
(I600
I600
tp1228
s(g72
g202
tp1229
(I225
I725
tp1230
s(g72
g32
tp1231
(I117
I857
tp1232
s(g25
g56
tp1233
(I796
I301
tp1234
s(g90
g187
tp1235
(I203
I203
tp1236
s(g39
g18
tp1237
(I0
I1000
tp1238
s(g26
g26
tp1239
(I564
I564
tp1240
s(g164
g98
tp1241
(I597
I602
tp1242
s(g227
g60
tp1243
(I0
I1000
tp1244
s(g39
g145
tp1245
(I570
I615
tp1246
s(g49
g73
tp1247
(I600
I600
tp1248
s(g250
g53
tp1249
(I987
I12
tp1250
s(g164
g85
tp1251
(I600
I600
tp1252
s(g72
g174
tp1253
(I998
I3
tp1254
s(g94
g213
tp1255
(I595
I600
tp1256
s(g44
g76
tp1257
(I600
I600
tp1258
s(g126
g90
tp1259
(I600
I600
tp1260
s(g73
g133
tp1261
(I600
I600
tp1262
s(g73
g18
tp1263
(I0
I1000
tp1264
s(g114
g60
tp1265
(I600
I600
tp1266
s(g72
g227
tp1267
(I992
I7
tp1268
s(g79
g114
tp1269
(I0
I1000
tp1270
s(g144
g167
tp1271
(I6
I996
tp1272
s(g136
g154
tp1273
(I30
I965
tp1274
s(g17
g126
tp1275
(I600
I595
tp1276
s(g144
g164
tp1277
(I600
I600
tp1278
s(g22
g22
tp1279
(I600
I600
tp1280
s(g243
g29
tp1281
(I600
I600
tp1282
s(g50
g187
tp1283
(I592
I597
tp1284
s(g9
g26
tp1285
(I550
I555
tp1286
s(g9
g126
tp1287
(I600
I600
tp1288
s(g84
g145
tp1289
(I600
I600
tp1290
s(g53
g35
tp1291
(I296
I751
tp1292
s(g50
g14
tp1293
(I600
I600
tp1294
s(g25
g72
tp1295
(I400
I400
tp1296
s(g73
g40
tp1297
(I600
I600
tp1298
s(g137
g13
tp1299
(I600
I600
tp1300
s(g49
g18
tp1301
(I0
I1000
tp1302
s(g137
g133
tp1303
(I600
I600
tp1304
s(g167
g174
tp1305
(I996
I6
tp1306
s(g32
g13
tp1307
(I600
I600
tp1308
s(g21
g44
tp1309
(I1000
I0
tp1310
s(g145
g60
tp1311
(I0
I1000
tp1312
s(g144
g9
tp1313
(I600
I600
tp1314
s(g144
g174
tp1315
(I600
I600
tp1316
s(g119
g76
tp1317
(I600
I600
tp1318
s(g250
g35
tp1319
(I204
I199
tp1320
s(g53
g164
tp1321
(I341
I721
tp1322
s(g136
g53
tp1323
(I1000
I0
tp1324
s(g49
g43
tp1325
(I600
I600
tp1326
s(g144
g144
tp1327
(I600
I600
tp1328
s(g56
g236
tp1329
(I366
I746
tp1330
s(g94
g22
tp1331
(I600
I600
tp1332
s(g145
g98
tp1333
(I617
I572
tp1334
s(g90
g114
tp1335
(I0
I1000
tp1336
s(g25
g174
tp1337
(I800
I300
tp1338
s(g50
g174
tp1339
(I600
I600
tp1340
s(g126
g227
tp1341
(I673
I423
tp1342
s(g213
g10
tp1343
(I0
I1000
tp1344
s(g90
g164
tp1345
(I600
I600
tp1346
s(g43
g14
tp1347
(I600
I600
tp1348
s(g32
g44
tp1349
(I600
I600
tp1350
s(g84
g76
tp1351
(I600
I600
tp1352
s(g50
g218
tp1353
(I600
I600
tp1354
s(g243
g18
tp1355
(I0
I1000
tp1356
s(g9
g187
tp1357
(I500
I500
tp1358
s(g57
g236
tp1359
(I600
I600
tp1360
s(g250
g154
tp1361
(I229
I209
tp1362
s(g136
g76
tp1363
(I400
I400
tp1364
s(g213
g13
tp1365
(I600
I595
tp1366
s(g250
g50
tp1367
(I204
I199
tp1368
s(g50
g10
tp1369
(I0
I1000
tp1370
s(g44
g218
tp1371
(I600
I600
tp1372
s(g236
g76
tp1373
(I600
I600
tp1374
s(g50
g85
tp1375
(I600
I600
tp1376
s(g84
g227
tp1377
(I549
I549
tp1378
s(g98
g167
tp1379
(I602
I597
tp1380
s(g137
g97
tp1381
(I600
I600
tp1382
s(g119
g145
tp1383
(I600
I600
tp1384
s(g39
g161
tp1385
(I0
I1000
tp1386
s(g32
g26
tp1387
(I757
I302
tp1388
s(g98
g202
tp1389
(I539
I639
tp1390
s(g25
g32
tp1391
(I155
I585
tp1392
s(g22
g13
tp1393
(I600
I600
tp1394
s(g136
g29
tp1395
(I474
I459
tp1396
s(g40
g22
tp1397
(I600
I600
tp1398
s(g14
g60
tp1399
(I0
I1000
tp1400
s(g94
g164
tp1401
(I600
I600
tp1402
s(g105
g84
tp1403
(I600
I600
tp1404
s(g40
g154
tp1405
(I600
I600
tp1406
s(g94
g84
tp1407
(I600
I600
tp1408
s(g243
g202
tp1409
(I600
I600
tp1410
s(g133
g14
tp1411
(I600
I600
tp1412
s(g85
g114
tp1413
(I0
I1000
tp1414
s(g76
g18
tp1415
(I0
I1000
tp1416
s(g17
g167
tp1417
(I588
I123
tp1418
s(g72
g97
tp1419
(I514
I479
tp1420
s(g145
g114
tp1421
(I0
I1000
tp1422
s(g50
g43
tp1423
(I600
I600
tp1424
s(g14
g10
tp1425
(I0
I1000
tp1426
s(g73
g56
tp1427
(I729
I384
tp1428
s(g69
g243
tp1429
(I600
I600
tp1430
s(g69
g114
tp1431
(I0
I1000
tp1432
s(g22
g44
tp1433
(I600
I600
tp1434
s(g53
g91
tp1435
(I695
I370
tp1436
s(g202
g76
tp1437
(I600
I600
tp1438
s(g43
g98
tp1439
(I599
I599
tp1440
s(g44
g187
tp1441
(I582
I587
tp1442
s(g25
g69
tp1443
(I800
I300
tp1444
s(g119
g167
tp1445
(I595
I110
tp1446
s(g40
g126
tp1447
(I600
I600
tp1448
s(g105
g29
tp1449
(I600
I600
tp1450
s(g144
g91
tp1451
(I600
I600
tp1452
s(g32
g218
tp1453
(I600
I600
tp1454
s(g187
g18
tp1455
(I0
I1000
tp1456
s(g94
g14
tp1457
(I600
I600
tp1458
s(g50
g76
tp1459
(I600
I600
tp1460
s(g53
g126
tp1461
(I367
I697
tp1462
s(g213
g14
tp1463
(I600
I595
tp1464
s(g137
g14
tp1465
(I600
I600
tp1466
s(g49
g174
tp1467
(I600
I600
tp1468
s(g40
g56
tp1469
(I374
I744
tp1470
s(g17
g114
tp1471
(I0
I1000
tp1472
s(g97
g202
tp1473
(I600
I600
tp1474
s(g98
g91
tp1475
(I602
I597
tp1476
s(g227
g76
tp1477
(I500
I500
tp1478
s(g90
g98
tp1479
(I601
I596
tp1480
s(g66
g91
tp1481
(I600
I600
tp1482
s(g133
g56
tp1483
(I746
I366
tp1484
s(g21
g13
tp1485
(I204
I199
tp1486
s(g126
g32
tp1487
(I600
I600
tp1488
s(g25
g218
tp1489
(I450
I450
tp1490
s(g49
g119
tp1491
(I600
I600
tp1492
s(g126
g98
tp1493
(I603
I593
tp1494
s(g154
g44
tp1495
(I600
I600
tp1496
s(g29
g133
tp1497
(I600
I600
tp1498
s(g22
g14
tp1499
(I600
I600
tp1500
s(g25
g161
tp1501
(I0
I1000
tp1502
s(g72
g39
tp1503
(I998
I3
tp1504
s(g213
g97
tp1505
(I604
I594
tp1506
s(g98
g174
tp1507
(I602
I597
tp1508
s(g144
g63
tp1509
(I0
I1000
tp1510
s(g72
g66
tp1511
(I470
I465
tp1512
s(g154
g76
tp1513
(I600
I600
tp1514
s(g49
g84
tp1515
(I600
I600
tp1516
s(g126
g10
tp1517
(I0
I1000
tp1518
s(g137
g137
tp1519
(I600
I600
tp1520
s(g73
g114
tp1521
(I0
I1000
tp1522
s(g90
g227
tp1523
(I776
I316
tp1524
s(g105
g187
tp1525
(I221
I221
tp1526
s(g154
g10
tp1527
(I0
I1000
tp1528
s(g57
g161
tp1529
(I0
I1000
tp1530
s(g9
g79
tp1531
(I600
I600
tp1532
s(g98
g10
tp1533
(I1
I996
tp1534
s(g35
g26
tp1535
(I666
I411
tp1536
s(g39
g50
tp1537
(I593
I593
tp1538
s(g73
g35
tp1539
(I600
I600
tp1540
s(g90
g36
tp1541
(I203
I203
tp1542
s(g40
g90
tp1543
(I600
I600
tp1544
s(g213
g145
tp1545
(I600
I595
tp1546
s(g94
g98
tp1547
(I995
I5
tp1548
s(g133
g227
tp1549
(I783
I308
tp1550
s(g13
g35
tp1551
(I600
I600
tp1552
s(g22
g57
tp1553
(I600
I600
tp1554
s(g94
g13
tp1555
(I600
I600
tp1556
s(g137
g32
tp1557
(I600
I600
tp1558
s(g36
g60
tp1559
(I0
I1000
tp1560
s(g145
g63
tp1561
(I736
I151
tp1562
s(g29
g145
tp1563
(I600
I600
tp1564
s(g9
g22
tp1565
(I600
I600
tp1566
s(g73
g85
tp1567
(I600
I600
tp1568
s(g53
g76
tp1569
(I466
I466
tp1570
s(g91
g14
tp1571
(I600
I600
tp1572
s(g105
g56
tp1573
(I949
I49
tp1574
s(g69
g63
tp1575
(I11
I981
tp1576
s(g21
g73
tp1577
(I204
I199
tp1578
s(g17
g137
tp1579
(I604
I594
tp1580
s(g17
g22
tp1581
(I600
I595
tp1582
s(g167
g167
tp1583
(I596
I596
tp1584
s(g60
g60
tp1585
(I0
I1000
tp1586
s(g69
g73
tp1587
(I600
I600
tp1588
s(g79
g91
tp1589
(I600
I600
tp1590
s(g17
g154
tp1591
(I600
I595
tp1592
s(g66
g114
tp1593
(I0
I1000
tp1594
s(g136
g126
tp1595
(I303
I628
tp1596
s(g29
g57
tp1597
(I600
I600
tp1598
s(g167
g114
tp1599
(I0
I1000
tp1600
s(g243
g14
tp1601
(I600
I600
tp1602
s(g105
g79
tp1603
(I600
I600
tp1604
s(g250
g90
tp1605
(I204
I199
tp1606
s(g250
g133
tp1607
(I240
I190
tp1608
s(g39
g105
tp1609
(I43
I958
tp1610
s(g9
g213
tp1611
(I595
I600
tp1612
s(g63
g114
tp1613
(I0
I1000
tp1614
s(g17
g236
tp1615
(I600
I595
tp1616
s(g49
g164
tp1617
(I600
I600
tp1618
s(g56
g26
tp1619
(I998
I3
tp1620
s(g14
g85
tp1621
(I600
I600
tp1622
s(g40
g76
tp1623
(I600
I600
tp1624
s(g73
g97
tp1625
(I600
I600
tp1626
s(g164
g76
tp1627
(I600
I600
tp1628
s(g25
g63
tp1629
(I100
I600
tp1630
s(g72
g91
tp1631
(I560
I360
tp1632
s(g73
g90
tp1633
(I600
I600
tp1634
s(g105
g36
tp1635
(I221
I221
tp1636
s(g9
g227
tp1637
(I549
I549
tp1638
s(g84
g35
tp1639
(I600
I600
tp1640
s(g53
g145
tp1641
(I280
I775
tp1642
s(g94
g97
tp1643
(I600
I600
tp1644
s(g79
g32
tp1645
(I600
I600
tp1646
s(g187
g161
tp1647
(I0
I1000
tp1648
s(g50
g22
tp1649
(I600
I600
tp1650
s(g243
g32
tp1651
(I600
I600
tp1652
s(g136
g44
tp1653
(I1000
I0
tp1654
s(g79
g60
tp1655
(I0
I1000
tp1656
s(g69
g26
tp1657
(I9
I994
tp1658
s(g213
g36
tp1659
(I597
I597
tp1660
s(g49
g133
tp1661
(I600
I600
tp1662
s(g243
g126
tp1663
(I600
I600
tp1664
s(g164
g26
tp1665
(I708
I348
tp1666
s(g21
g53
tp1667
(I1000
I0
tp1668
s(g73
g145
tp1669
(I600
I600
tp1670
s(g21
g43
tp1671
(I204
I199
tp1672
s(g164
g60
tp1673
(I0
I1000
tp1674
s(g73
g73
tp1675
(I600
I600
tp1676
s(g98
g18
tp1677
(I0
I1000
tp1678
s(g21
g36
tp1679
(I200
I200
tp1680
s(g133
g26
tp1681
(I810
I240
tp1682
s(g218
g161
tp1683
(I0
I1000
tp1684
s(g84
g187
tp1685
(I500
I500
tp1686
s(g94
g161
tp1687
(I0
I1000
tp1688
s(g53
g174
tp1689
(I998
I3
tp1690
s(g250
g167
tp1691
(I600
I100
tp1692
s(g22
g36
tp1693
(I243
I243
tp1694
s(g144
g69
tp1695
(I600
I600
tp1696
s(g66
g90
tp1697
(I600
I600
tp1698
s(g105
g98
tp1699
(I977
I32
tp1700
s(g98
g187
tp1701
(I200
I200
tp1702
s(g119
g119
tp1703
(I600
I600
tp1704
s(g250
g63
tp1705
(I200
I200
tp1706
s(g79
g66
tp1707
(I600
I600
tp1708
s(g35
g76
tp1709
(I600
I600
tp1710
s(g73
g119
tp1711
(I600
I600
tp1712
s(g90
g154
tp1713
(I600
I600
tp1714
s(g91
g227
tp1715
(I309
I789
tp1716
s(g40
g26
tp1717
(I338
I718
tp1718
s(g90
g167
tp1719
(I597
I567
tp1720
s(g145
g32
tp1721
(I600
I600
tp1722
s(g236
g85
tp1723
(I600
I600
tp1724
s(g72
g10
tp1725
(I0
I1000
tp1726
s(g98
g85
tp1727
(I200
I200
tp1728
s(g53
g60
tp1729
(I0
I1000
tp1730
s(g84
g18
tp1731
(I0
I1000
tp1732
s(g79
g133
tp1733
(I600
I600
tp1734
s(g39
g66
tp1735
(I596
I596
tp1736
s(g43
g91
tp1737
(I600
I600
tp1738
s(g43
g35
tp1739
(I600
I600
tp1740
s(g32
g56
tp1741
(I730
I385
tp1742
s(g105
g63
tp1743
(I938
I53
tp1744
s(g63
g14
tp1745
(I316
I451
tp1746
s(g144
g13
tp1747
(I600
I600
tp1748
s(g72
g44
tp1749
(I39
I959
tp1750
s(g250
g60
tp1751
(I0
I1000
tp1752
s(g144
g98
tp1753
(I597
I602
tp1754
s(g49
g167
tp1755
(I6
I996
tp1756
s(g98
g35
tp1757
(I599
I599
tp1758
s(g164
g236
tp1759
(I600
I600
tp1760
s(g161
g60
tp1761
(I600
I600
tp1762
s(g97
g154
tp1763
(I600
I600
tp1764
s(g49
g57
tp1765
(I600
I600
tp1766
s(g44
g44
tp1767
(I600
I600
tp1768
s(g21
g161
tp1769
(I0
I1000
tp1770
s(g79
g164
tp1771
(I600
I600
tp1772
s(g29
g161
tp1773
(I0
I1000
tp1774
s(g167
g91
tp1775
(I599
I594
tp1776
s(g49
g202
tp1777
(I600
I600
tp1778
s(g66
g98
tp1779
(I597
I602
tp1780
s(g84
g10
tp1781
(I0
I1000
tp1782
s(g9
g14
tp1783
(I600
I600
tp1784
s(g119
g63
tp1785
(I983
I8
tp1786
s(g25
g213
tp1787
(I128
I588
tp1788
s(g79
g97
tp1789
(I600
I600
tp1790
s(g213
g29
tp1791
(I604
I594
tp1792
s(g250
g243
tp1793
(I208
I198
tp1794
s(g250
g236
tp1795
(I204
I199
tp1796
s(g105
g14
tp1797
(I600
I600
tp1798
s(g119
g218
tp1799
(I600
I600
tp1800
s(g84
g161
tp1801
(I0
I1000
tp1802
s(g98
g44
tp1803
(I26
I981
tp1804
s(g66
g218
tp1805
(I600
I600
tp1806
s(g53
g236
tp1807
(I244
I814
tp1808
s(g126
g133
tp1809
(I600
I600
tp1810
s(g17
g164
tp1811
(I604
I594
tp1812
s(g57
g60
tp1813
(I0
I1000
tp1814
s(g21
g60
tp1815
(I0
I1000
tp1816
s(g10
g18
tp1817
(I1000
I0
tp1818
s(g250
g137
tp1819
(I204
I199
tp1820
s(g29
g85
tp1821
(I600
I600
tp1822
s(g69
g10
tp1823
(I0
I1000
tp1824
s(g39
g243
tp1825
(I23
I978
tp1826
s(g137
g43
tp1827
(I600
I600
tp1828
s(g119
g91
tp1829
(I600
I600
tp1830
s(g85
g76
tp1831
(I1000
I0
tp1832
s(g57
g10
tp1833
(I0
I1000
tp1834
s(g213
g18
tp1835
(I0
I1000
tp1836
s(g49
g79
tp1837
(I600
I600
tp1838
s(g202
g91
tp1839
(I600
I600
tp1840
s(g32
g35
tp1841
(I600
I600
tp1842
s(g39
g84
tp1843
(I597
I597
tp1844
s(g250
g126
tp1845
(I204
I199
tp1846
s(g133
g202
tp1847
(I600
I600
tp1848
s(g50
g57
tp1849
(I600
I600
tp1850
s(g43
g154
tp1851
(I600
I600
tp1852
s(g119
g126
tp1853
(I600
I600
tp1854
s(g202
g202
tp1855
(I600
I600
tp1856
s(g9
g43
tp1857
(I600
I600
tp1858
s(g17
g10
tp1859
(I0
I1000
tp1860
s(g39
g167
tp1861
(I6
I996
tp1862
s(g84
g174
tp1863
(I600
I600
tp1864
s(g35
g14
tp1865
(I600
I600
tp1866
s(g97
g167
tp1867
(I559
I164
tp1868
s(g94
g40
tp1869
(I600
I600
tp1870
s(g29
g90
tp1871
(I600
I600
tp1872
s(g144
g105
tp1873
(I600
I600
tp1874
s(g13
g227
tp1875
(I751
I346
tp1876
s(g44
g14
tp1877
(I600
I600
tp1878
s(g29
g44
tp1879
(I600
I600
tp1880
s(g243
g79
tp1881
(I600
I600
tp1882
s(g137
g119
tp1883
(I600
I600
tp1884
s(g18
g18
tp1885
(I0
I1000
tp1886
s(g137
g22
tp1887
(I600
I600
tp1888
s(g35
g10
tp1889
(I0
I1000
tp1890
s(g72
g22
tp1891
(I79
I909
tp1892
s(g164
g56
tp1893
(I414
I704
tp1894
s(g213
g187
tp1895
(I597
I597
tp1896
s(g126
g114
tp1897
(I0
I1000
tp1898
s(g49
g126
tp1899
(I600
I600
tp1900
s(g213
g213
tp1901
(I196
I216
tp1902
s(g236
g187
tp1903
(I203
I203
tp1904
s(g72
g154
tp1905
(I39
I959
tp1906
s(g144
g44
tp1907
(I600
I600
tp1908
s(g49
g32
tp1909
(I600
I600
tp1910
s(g29
g63
tp1911
(I488
I368
tp1912
s(g154
g154
tp1913
(I600
I600
tp1914
s(g98
g26
tp1915
(I35
I975
tp1916
s(g17
g40
tp1917
(I604
I594
tp1918
s(g85
g60
tp1919
(I0
I1000
tp1920
s(g13
g167
tp1921
(I609
I144
tp1922
s(g250
g76
tp1923
(I200
I200
tp1924
s(g105
g43
tp1925
(I600
I600
tp1926
s(g79
g76
tp1927
(I600
I600
tp1928
s(g243
g161
tp1929
(I0
I1000
tp1930
s(g13
g57
tp1931
(I600
I600
tp1932
s(g49
g91
tp1933
(I600
I600
tp1934
s(g53
g97
tp1935
(I647
I412
tp1936
s(g56
g36
tp1937
(I557
I562
tp1938
s(g94
g114
tp1939
(I0
I1000
tp1940
s(g84
g14
tp1941
(I600
I600
tp1942
s(g25
g164
tp1943
(I800
I300
tp1944
s(g17
g91
tp1945
(I604
I594
tp1946
s(g21
g164
tp1947
(I208
I198
tp1948
s(g25
g53
tp1949
(I664
I334
tp1950
s(g90
g63
tp1951
(I717
I162
tp1952
s(g91
g63
tp1953
(I310
I460
tp1954
s(g9
g53
tp1955
(I532
I532
tp1956
s(g10
g10
tp1957
(I1000
I0
tp1958
s(g9
g73
tp1959
(I600
I600
tp1960
s(g69
g40
tp1961
(I600
I600
tp1962
s(g22
g18
tp1963
(I0
I1000
tp1964
s(g69
g137
tp1965
(I600
I600
tp1966
s(g79
g154
tp1967
(I600
I600
tp1968
s(g35
g63
tp1969
(I660
I195
tp1970
s(g39
g236
tp1971
(I540
I635
tp1972
s(g213
g161
tp1973
(I0
I1000
tp1974
s(g164
g161
tp1975
(I0
I1000
tp1976
s(g145
g36
tp1977
(I230
I230
tp1978
s(g50
g91
tp1979
(I600
I600
tp1980
s(g13
g60
tp1981
(I0
I1000
tp1982
s(g213
g79
tp1983
(I604
I594
tp1984
s(g213
g218
tp1985
(I600
I595
tp1986
s(g9
g154
tp1987
(I600
I600
tp1988
s(g243
g91
tp1989
(I600
I600
tp1990
s(g136
g90
tp1991
(I105
I870
tp1992
s(g66
g202
tp1993
(I600
I600
tp1994
s(g49
g161
tp1995
(I0
I1000
tp1996
s(g73
g84
tp1997
(I600
I600
tp1998
s(g114
g114
tp1999
(I0
I1000
tp2000
s(g29
g79
tp2001
(I600
I600
tp2002
s(g21
g79
tp2003
(I204
I199
tp2004
s(g21
g133
tp2005
(I240
I190
tp2006
s(g91
g85
tp2007
(I600
I600
tp2008
s(g69
g36
tp2009
(I597
I602
tp2010
s(g44
g26
tp2011
(I965
I35
tp2012
s(g32
g76
tp2013
(I600
I600
tp2014
s(g94
g76
tp2015
(I600
I600
tp2016
s(g250
g72
tp2017
(I989
I9
tp2018
s(g243
g40
tp2019
(I600
I600
tp2020
s(g29
g36
tp2021
(I577
I582
tp2022
s(g105
g145
tp2023
(I600
I600
tp2024
s(g243
g218
tp2025
(I600
I600
tp2026
s(g39
g213
tp2027
(I33
I968
tp2028
s(g94
g218
tp2029
(I600
I600
tp2030
s(g25
g36
tp2031
(I500
I500
tp2032
s(g50
g53
tp2033
(I422
I627
tp2034
s(g36
g26
tp2035
(I557
I552
tp2036
s(g243
g44
tp2037
(I600
I600
tp2038
s(g73
g10
tp2039
(I0
I1000
tp2040
s(g97
g218
tp2041
(I600
I600
tp2042
s(g9
g137
tp2043
(I600
I600
tp2044
s(g119
g161
tp2045
(I0
I1000
tp2046
s(g90
g85
tp2047
(I600
I600
tp2048
s(g97
g26
tp2049
(I447
I577
tp2050
s(g21
g136
tp2051
(I996
I1
tp2052
s(g84
g133
tp2053
(I600
I600
tp2054
s(g136
g60
tp2055
(I0
I1000
tp2056
s(g49
g56
tp2057
(I3
I998
tp2058
s(g250
g66
tp2059
(I208
I198
tp2060
s(g213
g174
tp2061
(I604
I594
tp2062
s(g202
g26
tp2063
(I592
I507
tp2064
s(g213
g76
tp2065
(I596
I596
tp2066
s(g243
g84
tp2067
(I600
I600
tp2068
s(g97
g56
tp2069
(I479
I639
tp2070
s(g79
g119
tp2071
(I600
I600
tp2072
s(g17
g187
tp2073
(I597
I597
tp2074
s(g144
g90
tp2075
(I600
I600
tp2076
s(g243
g119
tp2077
(I600
I600
tp2078
s(g25
g25
tp2079
(I400
I400
tp2080
s(g91
g161
tp2081
(I0
I1000
tp2082
s(g35
g85
tp2083
(I600
I600
tp2084
s(g69
g14
tp2085
(I600
I600
tp2086
s(g90
g13
tp2087
(I600
I600
tp2088
s(g105
g76
tp2089
(I600
I600
tp2090
s(g164
g91
tp2091
(I600
I600
tp2092
s(g73
g79
tp2093
(I600
I600
tp2094
s(g26
g14
tp2095
(I518
I583
tp2096
s(g25
g98
tp2097
(I797
I302
tp2098
s(g21
g57
tp2099
(I204
I199
tp2100
s(g57
g57
tp2101
(I600
I600
tp2102
s(g84
g60
tp2103
(I0
I1000
tp2104
s(g72
g79
tp2105
(I473
I478
tp2106
s(g133
g63
tp2107
(I771
I116
tp2108
s(g57
g167
tp2109
(I597
I537
tp2110
s(g227
g174
tp2111
(I998
I3
tp2112
s(g32
g63
tp2113
(I723
I148
tp2114
s(g250
g202
tp2115
(I204
I199
tp2116
s(g250
g32
tp2117
(I252
I187
tp2118
s(g144
g60
tp2119
(I0
I1000
tp2120
s(g66
g13
tp2121
(I600
I600
tp2122
s(g236
g236
tp2123
(I600
I600
tp2124
s(g119
g32
tp2125
(I600
I600
tp2126
s(g32
g18
tp2127
(I0
I1000
tp2128
s(g39
g154
tp2129
(I33
I968
tp2130
s(g25
g145
tp2131
(I143
I588
tp2132
s(g154
g164
tp2133
(I600
I600
tp2134
s(g76
g10
tp2135
(I1
I996
tp2136
s(g250
g174
tp2137
(I606
I591
tp2138
s(g66
g22
tp2139
(I600
I600
tp2140
s(g43
g60
tp2141
(I0
I1000
tp2142
s(g202
g10
tp2143
(I0
I1000
tp2144
s(g136
g227
tp2145
(I1000
I0
tp2146
s(g73
g236
tp2147
(I600
I600
tp2148
s(g84
g66
tp2149
(I600
I600
tp2150
s(g17
g79
tp2151
(I604
I594
tp2152
s(g133
g91
tp2153
(I600
I600
tp2154
s(g144
g29
tp2155
(I600
I600
tp2156
s(g213
g98
tp2157
(I601
I596
tp2158
s(g50
g50
tp2159
(I600
I600
tp2160
s(g144
g161
tp2161
(I0
I1000
tp2162
s(g84
g119
tp2163
(I600
I600
tp2164
s(g9
g85
tp2165
(I600
I600
tp2166
s(g137
g35
tp2167
(I600
I600
tp2168
s(g25
g97
tp2169
(I800
I300
tp2170
s(g35
g167
tp2171
(I597
I597
tp2172
s(g73
g13
tp2173
(I600
I600
tp2174
s(g66
g35
tp2175
(I600
I600
tp2176
s(g136
g18
tp2177
(I0
I1000
tp2178
s(g187
g60
tp2179
(I0
I1000
tp2180
s(g133
g10
tp2181
(I0
I1000
tp2182
s(g25
g76
tp2183
(I400
I400
tp2184
s(g136
g57
tp2185
(I114
I859
tp2186
s(g66
g26
tp2187
(I542
I552
tp2188
s(g44
g10
tp2189
(I0
I1000
tp2190
s(g73
g22
tp2191
(I600
I600
tp2192
s(g72
g84
tp2193
(I450
I450
tp2194
s(g29
g76
tp2195
(I600
I600
tp2196
s(g40
g53
tp2197
(I367
I697
tp2198
s(g40
g29
tp2199
(I600
I600
tp2200
s(g119
g14
tp2201
(I600
I600
tp2202
s(g66
g14
tp2203
(I600
I600
tp2204
s(g167
g18
tp2205
(I0
I1000
tp2206
s(g154
g63
tp2207
(I968
I23
tp2208
s(g126
g145
tp2209
(I600
I600
tp2210
s(g79
g10
tp2211
(I0
I1000
tp2212
s(g25
g227
tp2213
(I796
I301
tp2214
s(g202
g167
tp2215
(I617
I172
tp2216
s(g43
g97
tp2217
(I600
I600
tp2218
s(g144
g26
tp2219
(I9
I994
tp2220
s(g21
g69
tp2221
(I216
I196
tp2222
s(g91
g114
tp2223
(I0
I1000
tp2224
s(g137
g167
tp2225
(I595
I110
tp2226
s(g250
g49
tp2227
(I606
I591
tp2228
s(g97
g164
tp2229
(I600
I600
tp2230
s(g167
g187
tp2231
(I597
I602
tp2232
s(g29
g53
tp2233
(I400
I665
tp2234
s(g79
g174
tp2235
(I600
I600
tp2236
s(g137
g164
tp2237
(I600
I600
tp2238
s(g213
g56
tp2239
(I974
I24
tp2240
s(g144
g36
tp2241
(I597
I602
tp2242
s(g63
g218
tp2243
(I600
I100
tp2244
s(g21
g17
tp2245
(I216
I196
tp2246
s(g39
g56
tp2247
(I3
I998
tp2248
s(g119
g174
tp2249
(I600
I600
tp2250
s(g90
g161
tp2251
(I0
I1000
tp2252
s(g85
g85
tp2253
(I600
I600
tp2254
s(g144
g53
tp2255
(I3
I998
tp2256
s(g72
g50
tp2257
(I509
I429
tp2258
s(g22
g174
tp2259
(I600
I600
tp2260
s(g35
g227
tp2261
(I741
I351
tp2262
s(g187
g85
tp2263
(I200
I200
tp2264
s(g9
g119
tp2265
(I600
I600
tp2266
s(g90
g57
tp2267
(I600
I600
tp2268
s(g35
g114
tp2269
(I0
I1000
tp2270
s(g39
g43
tp2271
(I602
I587
tp2272
s(g43
g202
tp2273
(I600
I600
tp2274
s(g9
g57
tp2275
(I600
I600
tp2276
s(g53
g202
tp2277
(I376
I656
tp2278
s(g250
g44
tp2279
(I473
I148
tp2280
s(g144
g35
tp2281
(I600
I600
tp2282
s(g72
g60
tp2283
(I0
I1000
tp2284
s(g94
g73
tp2285
(I600
I600
tp2286
s(g40
g85
tp2287
(I600
I600
tp2288
s(g154
g18
tp2289
(I0
I1000
tp2290
s(g66
g174
tp2291
(I600
I600
tp2292
s(g9
g105
tp2293
(I600
I600
tp2294
s(g36
g18
tp2295
(I0
I1000
tp2296
s(g29
g32
tp2297
(I600
I600
tp2298
s(g9
g44
tp2299
(I600
I600
tp2300
s(g105
g66
tp2301
(I600
I600
tp2302
s(g29
g60
tp2303
(I0
I1000
tp2304
s(g29
g154
tp2305
(I600
I600
tp2306
s(g73
g76
tp2307
(I600
I600
tp2308
s(g136
g97
tp2309
(I516
I476
tp2310
s(g136
g66
tp2311
(I472
I462
tp2312
s(g137
g10
tp2313
(I0
I1000
tp2314
s(g69
g98
tp2315
(I597
I602
tp2316
s(g213
g22
tp2317
(I600
I595
tp2318
s(g35
g174
tp2319
(I600
I600
tp2320
s(g21
g85
tp2321
(I200
I200
tp2322
s(g76
g76
tp2323
(I200
I200
tp2324
s(g174
g174
tp2325
(I600
I600
tp2326
s(g22
g187
tp2327
(I243
I243
tp2328
s(g236
g167
tp2329
(I602
I127
tp2330
s(g94
g17
tp2331
(I595
I600
tp2332
s(g202
g236
tp2333
(I600
I600
tp2334
s(g29
g236
tp2335
(I600
I600
tp2336
s(g25
g202
tp2337
(I171
I581
tp2338
s(g49
g218
tp2339
(I600
I600
tp2340
s(g17
g14
tp2341
(I600
I595
tp2342
s(g126
g202
tp2343
(I600
I600
tp2344
s(g164
g227
tp2345
(I354
I744
tp2346
s(g167
g26
tp2347
(I996
I6
tp2348
s(g9
g56
tp2349
(I559
I559
tp2350
s(g39
g98
tp2351
(I597
I602
tp2352
s(g17
g227
tp2353
(I974
I24
tp2354
s(g44
g35
tp2355
(I600
I600
tp2356
s(g105
g164
tp2357
(I600
I600
tp2358
s(g105
g57
tp2359
(I600
I600
tp2360
s(g250
g105
tp2361
(I225
I215
tp2362
s(g154
g98
tp2363
(I981
I26
tp2364
s(g119
g202
tp2365
(I600
I600
tp2366
s(g136
g161
tp2367
(I0
I1000
tp2368
s(g84
g40
tp2369
(I600
I600
tp2370
s(g136
g73
tp2371
(I141
I826
tp2372
s(g154
g85
tp2373
(I600
I600
tp2374
s(g35
g60
tp2375
(I0
I1000
tp2376
s(g137
g76
tp2377
(I600
I600
tp2378
s(g49
g49
tp2379
(I600
I600
tp2380
s(g9
g218
tp2381
(I600
I600
tp2382
s(g72
g137
tp2383
(I90
I890
tp2384
s(g98
g36
tp2385
(I200
I200
tp2386
s(g90
g133
tp2387
(I600
I600
tp2388
s(g13
g174
tp2389
(I600
I600
tp2390
s(g91
g76
tp2391
(I600
I600
tp2392
s(g9
g133
tp2393
(I600
I600
tp2394
s(g97
g85
tp2395
(I600
I600
tp2396
s(g85
g10
tp2397
(I1
I996
tp2398
s(g145
g14
tp2399
(I600
I600
tp2400
s(g50
g44
tp2401
(I600
I600
tp2402
s(g97
g76
tp2403
(I600
I600
tp2404
s(g243
g145
tp2405
(I600
I600
tp2406
s(g133
g114
tp2407
(I0
I1000
tp2408
s(g136
g136
tp2409
(I400
I400
tp2410
s(g79
g22
tp2411
(I600
I600
tp2412
s(g94
g85
tp2413
(I600
I600
tp2414
s(g32
g114
tp2415
(I0
I1000
tp2416
s(g22
g10
tp2417
(I0
I1000
tp2418
s(g17
g17
tp2419
(I196
I216
tp2420
s(g36
g187
tp2421
(I200
I200
tp2422
s(g137
g126
tp2423
(I600
I600
tp2424
s(g69
g13
tp2425
(I600
I600
tp2426
s(g49
g187
tp2427
(I597
I602
tp2428
s(g9
g91
tp2429
(I600
I600
tp2430
s(g137
g202
tp2431
(I600
I600
tp2432
s(g144
g218
tp2433
(I600
I600
tp2434
s(g137
g227
tp2435
(I703
I393
tp2436
s(g35
g161
tp2437
(I0
I1000
tp2438
s(g94
g26
tp2439
(I515
I600
tp2440
s(g154
g36
tp2441
(I237
I237
tp2442
s(g21
g63
tp2443
(I200
I200
tp2444
s(g202
g161
tp2445
(I0
I1000
tp2446
s(g26
g218
tp2447
(I600
I515
tp2448
s(g21
g145
tp2449
(I240
I190
tp2450
s(g97
g174
tp2451
(I600
I600
tp2452
s(g72
g36
tp2453
(I450
I450
tp2454
s(g137
g91
tp2455
(I600
I600
tp2456
s(g29
g167
tp2457
(I592
I597
tp2458
s(g84
g26
tp2459
(I550
I555
tp2460
s(g79
g35
tp2461
(I600
I600
tp2462
s(g44
g63
tp2463
(I0
I1000
tp2464
s(g79
g13
tp2465
(I600
I600
tp2466
s(g39
g76
tp2467
(I598
I598
tp2468
s(g13
g13
tp2469
(I600
I600
tp2470
s(g250
g22
tp2471
(I327
I197
tp2472
s(g36
g76
tp2473
(I200
I200
tp2474
s(g97
g44
tp2475
(I600
I600
tp2476
s(g119
g18
tp2477
(I0
I1000
tp2478
s(g53
g114
tp2479
(I0
I1000
tp2480
s(g17
g26
tp2481
(I970
I30
tp2482
s(g66
g18
tp2483
(I0
I1000
tp2484
s(g187
g114
tp2485
(I0
I1000
tp2486
s(g202
g218
tp2487
(I600
I600
tp2488
s(g25
g29
tp2489
(I800
I300
tp2490
s(g84
g63
tp2491
(I364
I369
tp2492
s(g164
g14
tp2493
(I600
I600
tp2494
s(g97
g63
tp2495
(I524
I444
tp2496
s(g79
g85
tp2497
(I600
I600
tp2498
s(g73
g14
tp2499
(I600
I600
tp2500
s(g137
g63
tp2501
(I907
I52
tp2502
s(g105
g69
tp2503
(I600
I600
tp2504
s(g44
g174
tp2505
(I600
I600
tp2506
s(g69
g174
tp2507
(I600
I600
tp2508
s(g145
g133
tp2509
(I600
I600
tp2510
s(g66
g154
tp2511
(I600
I600
tp2512
s(g40
g236
tp2513
(I600
I600
tp2514
s(g26
g18
tp2515
(I0
I1000
tp2516
s(g72
g13
tp2517
(I144
I824
tp2518
s(g9
g164
tp2519
(I600
I600
tp2520
s(g218
g218
tp2521
(I600
I600
tp2522
s(g25
g9
tp2523
(I503
I498
tp2524
s(g49
g213
tp2525
(I594
I604
tp2526
s(g72
g145
tp2527
(I144
I824
tp2528
s(g66
g76
tp2529
(I600
I600
tp2530
s(g144
g66
tp2531
(I600
I600
tp2532
s(g97
g35
tp2533
(I600
I600
tp2534
s(g202
g44
tp2535
(I600
I600
tp2536
s(g144
g32
tp2537
(I600
I600
tp2538
s(g105
g13
tp2539
(I600
I600
tp2540
s(g90
g56
tp2541
(I743
I368
tp2542
s(g202
g187
tp2543
(I203
I203
tp2544
s(g243
g243
tp2545
(I600
I600
tp2546
s(g17
g243
tp2547
(I604
I594
tp2548
s(g79
g14
tp2549
(I600
I600
tp2550
s(g57
g18
tp2551
(I0
I1000
tp2552
s(g72
g17
tp2553
(I24
I974
tp2554
s(g133
g98
tp2555
(I637
I542
tp2556
s(g79
g44
tp2557
(I600
I600
tp2558
s(g53
g56
tp2559
(I860
I205
tp2560
s(g26
g63
tp2561
(I0
I1000
tp2562
s(g145
g236
tp2563
(I600
I600
tp2564
s(g69
g202
tp2565
(I600
I600
tp2566
s(g90
g60
tp2567
(I0
I1000
tp2568
s(g98
g13
tp2569
(I572
I617
tp2570
s(g39
g164
tp2571
(I572
I612
tp2572
s(g174
g10
tp2573
(I0
I1000
tp2574
s(g73
g154
tp2575
(I600
I600
tp2576
s(g63
g10
tp2577
(I1
I996
tp2578
s(g53
g13
tp2579
(I280
I775
tp2580
s(g57
g114
tp2581
(I0
I1000
tp2582
s(g36
g36
tp2583
(I200
I200
tp2584
s(g91
g10
tp2585
(I0
I1000
tp2586
s(g136
g236
tp2587
(I78
I903
tp2588
s(g144
g136
tp2589
(I0
I1000
tp2590
s(g69
g187
tp2591
(I597
I602
tp2592
s(g39
g137
tp2593
(I558
I623
tp2594
s(g97
g36
tp2595
(I597
I602
tp2596
s(g72
g167
tp2597
(I450
I450
tp2598
s(g40
g32
tp2599
(I600
I600
tp2600
s(g50
g236
tp2601
(I600
I600
tp2602
s(g236
g114
tp2603
(I0
I1000
tp2604
s(g84
g32
tp2605
(I600
I600
tp2606
s(g9
g50
tp2607
(I600
I600
tp2608
s(g43
g133
tp2609
(I600
I600
tp2610
s(g17
g90
tp2611
(I600
I595
tp2612
s(g84
g154
tp2613
(I600
I600
tp2614
s(g73
g29
tp2615
(I600
I600
tp2616
s(g126
g236
tp2617
(I600
I600
tp2618
s(g250
g10
tp2619
(I1
I996
tp2620
s(g236
g18
tp2621
(I0
I1000
tp2622
s(g25
g10
tp2623
(I0
I1000
tp2624
s(g9
g161
tp2625
(I0
I1000
tp2626
s(g21
g21
tp2627
(I200
I200
tp2628
s(g145
g174
tp2629
(I600
I600
tp2630
s(g227
g161
tp2631
(I0
I1000
tp2632
s(g29
g174
tp2633
(I600
I600
tp2634
s(g144
g133
tp2635
(I600
I600
tp2636
s(g29
g56
tp2637
(I374
I744
tp2638
s(g32
g167
tp2639
(I587
I157
tp2640
s(g36
g14
tp2641
(I203
I203
tp2642
s(g18
g60
tp2643
(I600
I600
tp2644
s(g145
g26
tp2645
(I735
I330
tp2646
s(g40
g60
tp2647
(I0
I1000
tp2648
s(g202
g36
tp2649
(I203
I203
tp2650
s(g126
g161
tp2651
(I0
I1000
tp2652
s(g94
g39
tp2653
(I595
I600
tp2654
s(g17
g73
tp2655
(I600
I595
tp2656
s(g50
g126
tp2657
(I600
I600
tp2658
s(g90
g202
tp2659
(I600
I600
tp2660
s(g69
g154
tp2661
(I600
I600
tp2662
s(g17
g29
tp2663
(I604
I594
tp2664
s(g69
g57
tp2665
(I600
I600
tp2666
s(g29
g98
tp2667
(I599
I599
tp2668
s(g21
g167
tp2669
(I600
I100
tp2670
s(g250
g119
tp2671
(I204
I199
tp2672
s(g43
g236
tp2673
(I600
I600
tp2674
s(g49
g44
tp2675
(I600
I600
tp2676
s(g213
g57
tp2677
(I600
I595
tp2678
s(g26
g161
tp2679
(I0
I1000
tp2680
s(g250
g43
tp2681
(I204
I199
tp2682
s(g126
g60
tp2683
(I0
I1000
tp2684
s(g213
g154
tp2685
(I600
I595
tp2686
s(g79
g227
tp2687
(I434
I664
tp2688
s(g63
g63
tp2689
(I200
I200
tp2690
s(g44
g227
tp2691
(I959
I39
tp2692
s(g56
g63
tp2693
(I0
I1000
tp2694
s(g72
g243
tp2695
(I14
I984
tp2696
s(g136
g133
tp2697
(I104
I864
tp2698
s(g84
g218
tp2699
(I600
I600
tp2700
s(g9
g69
tp2701
(I600
I600
tp2702
s(g9
g98
tp2703
(I599
I599
tp2704
s(g105
g137
tp2705
(I600
I600
tp2706
s(g43
g164
tp2707
(I600
I600
tp2708
s(g69
g29
tp2709
(I600
I600
tp2710
s(g69
g84
tp2711
(I600
I600
tp2712
s(g98
g218
tp2713
(I5
I995
tp2714
s(g39
g57
tp2715
(I561
I621
tp2716
s(g154
g60
tp2717
(I0
I1000
tp2718
s(g136
g22
tp2719
(I1000
I0
tp2720
s(g57
g63
tp2721
(I774
I129
tp2722
s(g145
g44
tp2723
(I600
I600
tp2724
s(g22
g154
tp2725
(I600
I600
tp2726
s(g14
g18
tp2727
(I0
I1000
tp2728
s(g49
g76
tp2729
(I600
I600
tp2730
s(g84
g167
tp2731
(I597
I597
tp2732
s(g94
g133
tp2733
(I600
I600
tp2734
s(g66
g10
tp2735
(I0
I1000
tp2736
s(g79
g202
tp2737
(I600
I600
tp2738
s(g29
g119
tp2739
(I600
I600
tp2740
s(g243
g35
tp2741
(I600
I600
tp2742
s(g187
g63
tp2743
(I200
I200
tp2744
s(g136
g98
tp2745
(I989
I9
tp2746
s(g187
g174
tp2747
(I602
I597
tp2748
s(g94
g94
tp2749
(I600
I600
tp2750
s(g14
g114
tp2751
(I0
I1000
tp2752
s(g21
g84
tp2753
(I204
I199
tp2754
s(g17
g36
tp2755
(I597
I597
tp2756
s(g25
g84
tp2757
(I503
I498
tp2758
s(g21
g105
tp2759
(I240
I190
tp2760
s(g105
g126
tp2761
(I600
I600
tp2762
s(g56
g227
tp2763
(I304
I794
tp2764
s(g218
g76
tp2765
(I600
I600
tp2766
s(g50
g63
tp2767
(I411
I476
tp2768
s(g243
g227
tp2769
(I984
I14
tp2770
s(g94
g227
tp2771
(I978
I23
tp2772
s(g69
g79
tp2773
(I600
I600
tp2774
s(g145
g91
tp2775
(I600
I600
tp2776
s(g25
g79
tp2777
(I509
I494
tp2778
s(g50
g56
tp2779
(I374
I744
tp2780
s(g243
g236
tp2781
(I600
I600
tp2782
s(g44
g60
tp2783
(I0
I1000
tp2784
s(g243
g22
tp2785
(I600
I600
tp2786
s(g213
g66
tp2787
(I604
I594
tp2788
s(g97
g227
tp2789
(I419
I679
tp2790
s(g243
g36
tp2791
(I597
I602
tp2792
s(g136
g164
tp2793
(I207
I762
tp2794
s(g250
g69
tp2795
(I606
I591
tp2796
s(g174
g161
tp2797
(I0
I1000
tp2798
s(g73
g57
tp2799
(I600
I600
tp2800
s(g105
g161
tp2801
(I0
I1000
tp2802
s(g25
g14
tp2803
(I107
I597
tp2804
s(g218
g10
tp2805
(I0
I1000
tp2806
s(g84
g53
tp2807
(I532
I532
tp2808
s(g243
g137
tp2809
(I600
I600
tp2810
s(g133
g133
tp2811
(I600
I600
tp2812
s(g236
g161
tp2813
(I0
I1000
tp2814
s(g56
g13
tp2815
(I401
I716
tp2816
s(g14
g218
tp2817
(I600
I600
tp2818
s(g32
g32
tp2819
(I600
I600
tp2820
s(g53
g44
tp2821
(I39
I959
tp2822
s(g49
g137
tp2823
(I600
I600
tp2824
s(g57
g36
tp2825
(I203
I203
tp2826
s(g213
g164
tp2827
(I604
I594
tp2828
s(g9
g49
tp2829
(I600
I600
tp2830
s(g53
g90
tp2831
(I245
I815
tp2832
s(g154
g167
tp2833
(I582
I132
tp2834
s(g39
g218
tp2835
(I600
I595
tp2836
s(g25
g35
tp2837
(I179
I579
tp2838
s(g25
g73
tp2839
(I171
I581
tp2840
s(g25
g39
tp2841
(I800
I300
tp2842
s(g227
g227
tp2843
(I500
I500
tp2844
s(g90
g14
tp2845
(I600
I600
tp2846
s(g174
g60
tp2847
(I0
I1000
tp2848
s(g154
g57
tp2849
(I600
I600
tp2850
s(g26
g114
tp2851
(I0
I1000
tp2852
s(g21
g227
tp2853
(I1000
I0
tp2854
s(g174
g76
tp2855
(I600
I600
tp2856
s(g90
g90
tp2857
(I600
I600
tp2858
s(g126
g14
tp2859
(I600
I600
tp2860
s(g154
g202
tp2861
(I600
I600
tp2862
s(g136
g84
tp2863
(I450
I450
tp2864
s(g98
g114
tp2865
(I0
I1000
tp2866
s(g13
g10
tp2867
(I0
I1000
tp2868
s(g69
g227
tp2869
(I3
I998
tp2870
s(g44
g236
tp2871
(I600
I600
tp2872
s(g66
g57
tp2873
(I600
I600
tp2874
s(g119
g57
tp2875
(I600
I600
tp2876
s(g32
g60
tp2877
(I0
I1000
tp2878
s(g144
g236
tp2879
(I600
I600
tp2880
s(g187
g227
tp2881
(I552
I547
tp2882
s(g213
g32
tp2883
(I600
I595
tp2884
s(g21
g213
tp2885
(I216
I196
tp2886
s(g56
g60
tp2887
(I0
I1000
tp2888
s(g133
g76
tp2889
(I600
I600
tp2890
s(g35
g91
tp2891
(I600
I600
tp2892
s(g22
g236
tp2893
(I600
I600
tp2894
s(g136
g63
tp2895
(I1
I996
tp2896
s(g53
g98
tp2897
(I861
I206
tp2898
s(g137
g145
tp2899
(I600
I600
tp2900
s(g136
g174
tp2901
(I1000
I0
tp2902
s(g66
g44
tp2903
(I600
I600
tp2904
s(g84
g36
tp2905
(I500
I500
tp2906
s(g119
g44
tp2907
(I600
I600
tp2908
s(g66
g145
tp2909
(I600
I600
tp2910
s(g43
g18
tp2911
(I0
I1000
tp2912
s(g53
g85
tp2913
(I466
I466
tp2914
s(g69
g85
tp2915
(I600
I600
tp2916
s(g202
g114
tp2917
(I0
I1000
tp2918
s(g21
g98
tp2919
(I200
I200
tp2920
s(g56
g56
tp2921
(I520
I520
tp2922
s(g13
g76
tp2923
(I600
I600
tp2924
s(g25
g60
tp2925
(I0
I1000
tp2926
s(g25
g13
tp2927
(I143
I588
tp2928
s(g72
g105
tp2929
(I49
I949
tp2930
s(g39
g187
tp2931
(I597
I602
tp2932
s(g126
g126
tp2933
(I600
I600
tp2934
s(g94
g56
tp2935
(I974
I29
tp2936
s(g50
g79
tp2937
(I600
I600
tp2938
s(g14
g161
tp2939
(I0
I1000
tp2940
s(g167
g161
tp2941
(I0
I1000
tp2942
s(g105
g119
tp2943
(I600
I600
tp2944
s(g105
g167
tp2945
(I576
I141
tp2946
s(g119
g56
tp2947
(I989
I9
tp2948
s(g126
g56
tp2949
(I658
I458
tp2950
s(g56
g167
tp2951
(I559
I559
tp2952
s(g79
g187
tp2953
(I500
I500
tp2954
s(g9
g202
tp2955
(I600
I600
tp2956
s(g250
g213
tp2957
(I601
I591
tp2958
s(g25
g85
tp2959
(I400
I400
tp2960
s(g154
g56
tp2961
(I959
I39
tp2962
s(g53
g36
tp2963
(I498
I503
tp2964
s(g69
g90
tp2965
(I600
I600
tp2966
s(g243
g10
tp2967
(I0
I1000
tp2968
s(g84
g98
tp2969
(I599
I599
tp2970
s(g91
g174
tp2971
(I600
I600
tp2972
s(g174
g114
tp2973
(I0
I1000
tp2974
s(g40
g40
tp2975
(I600
I600
tp2976
s(g50
g18
tp2977
(I0
I1000
tp2978
s(g119
g133
tp2979
(I600
I600
tp2980
s(g105
g114
tp2981
(I0
I1000
tp2982
s(g79
g57
tp2983
(I600
I600
tp2984
s(g126
g44
tp2985
(I600
I600
tp2986
s(g144
g119
tp2987
(I600
I600
tp2988
s(g133
g18
tp2989
(I0
I1000
tp2990
s(g94
g126
tp2991
(I600
I600
tp2992
s(g136
g39
tp2993
(I1000
I0
tp2994
s(g243
g174
tp2995
(I600
I600
tp2996
s(g250
g36
tp2997
(I200
I200
tp2998
s(g53
g22
tp2999
(I78
I928
tp3000
s(g22
g167
tp3001
(I574
I144
tp3002
s(g43
g43
tp3003
(I600
I600
tp3004
s(g9
g250
tp3005
(I199
I204
tp3006
s(g21
g56
tp3007
(I1000
I0
tp3008
s(g73
g32
tp3009
(I600
I600
tp3010
s(g21
g50
tp3011
(I204
I199
tp3012
s(g66
g36
tp3013
(I597
I602
tp3014
s(g56
g44
tp3015
(I39
I959
tp3016
s(g21
g72
tp3017
(I1000
I0
tp3018
s(g133
g60
tp3019
(I0
I1000
tp3020
s(g43
g32
tp3021
(I600
I600
tp3022
s(g49
g29
tp3023
(I600
I600
tp3024
s(g137
g174
tp3025
(I600
I600
tp3026
s(g84
g90
tp3027
(I600
I600
tp3028
s(g39
g53
tp3029
(I3
I998
tp3030
s(g174
g85
tp3031
(I600
I600
tp3032
s(g250
g79
tp3033
(I204
I199
tp3034
s(g25
g44
tp3035
(I128
I588
tp3036
s(g213
g202
tp3037
(I600
I595
tp3038
s(g136
g85
tp3039
(I400
I400
tp3040
s(g40
g119
tp3041
(I600
I600
tp3042
s(g49
g69
tp3043
(I600
I600
tp3044
s(g32
g91
tp3045
(I600
I600
tp3046
s(g39
g29
tp3047
(I602
I587
tp3048
s(g91
g218
tp3049
(I600
I600
tp3050
s(g49
g53
tp3051
(I3
I998
tp3052
s(g9
g236
tp3053
(I600
I600
tp3054
s(g50
g97
tp3055
(I600
I600
tp3056
s(g72
g114
tp3057
(I0
I1000
tp3058
s(g243
g187
tp3059
(I597
I602
tp3060
s(g97
g97
tp3061
(I600
I600
tp3062
s(g9
g18
tp3063
(I0
I1000
tp3064
s(g53
g18
tp3065
(I0
I1000
tp3066
s(g136
g79
tp3067
(I480
I470
tp3068
s(g144
g97
tp3069
(I600
I600
tp3070
s(g105
g18
tp3071
(I0
I1000
tp3072
s(g250
g18
tp3073
(I0
I1000
tp3074
s(g144
g73
tp3075
(I600
I600
tp3076
s(g94
g50
tp3077
(I600
I600
tp3078
s(g136
g43
tp3079
(I482
I447
tp3080
s(g36
g161
tp3081
(I0
I1000
tp3082
s(g236
g36
tp3083
(I203
I203
tp3084
s(g136
g36
tp3085
(I450
I450
tp3086
s(g202
g57
tp3087
(I600
I600
tp3088
s(g25
g18
tp3089
(I0
I1000
tp3090
s(g17
g133
tp3091
(I600
I595
tp3092
s(g250
g187
tp3093
(I200
I200
tp3094
s(g72
g213
tp3095
(I24
I974
tp3096
s(g164
g218
tp3097
(I600
I600
tp3098
s(g39
g73
tp3099
(I570
I615
tp3100
s(g17
g218
tp3101
(I600
I595
tp3102
s(g17
g13
tp3103
(I600
I595
tp3104
s(g69
g43
tp3105
(I600
I600
tp3106
s(g136
g105
tp3107
(I51
I946
tp3108
s(g119
g164
tp3109
(I600
I600
tp3110
s(g133
g236
tp3111
(I600
I600
tp3112
s(g29
g35
tp3113
(I600
I600
tp3114
s(g76
g114
tp3115
(I0
I1000
tp3116
s(g213
g43
tp3117
(I604
I594
tp3118
s(g250
g164
tp3119
(I208
I198
tp3120
s(g53
g167
tp3121
(I532
I532
tp3122
s(g250
g57
tp3123
(I204
I199
tp3124
s(g250
g84
tp3125
(I204
I199
tp3126
s(g53
g57
tp3127
(I268
I788
tp3128
s(g91
g18
tp3129
(I0
I1000
tp3130
s(g73
g63
tp3131
(I698
I173
tp3132
s(g9
g9
tp3133
(I600
I600
tp3134
s(g72
g56
tp3135
(I992
I7
tp3136
s(g133
g161
tp3137
(I0
I1000
tp3138
s(g94
g35
tp3139
(I600
I600
tp3140
s(g53
g218
tp3141
(I32
I967
tp3142
s(g10
g60
tp3143
(I1000
I0
tp3144
s(g84
g43
tp3145
(I600
I600
tp3146
s(g32
g10
tp3147
(I0
I1000
tp3148
s(g39
g69
tp3149
(I992
I12
tp3150
s(g43
g10
tp3151
(I0
I1000
tp3152
s(g17
g145
tp3153
(I600
I595
tp3154
s(g73
g36
tp3155
(I203
I203
tp3156
s(g250
g218
tp3157
(I600
I100
tp3158
s(g161
g161
tp3159
(I0
I1000
tp3160
s(g25
g126
tp3161
(I107
I597
tp3162
s(g250
g97
tp3163
(I606
I591
tp3164
s(g72
g76
tp3165
(I400
I400
tp3166
s(g21
g91
tp3167
(I208
I198
tp3168
s(g66
g63
tp3169
(I400
I400
tp3170
s(g39
g85
tp3171
(I598
I598
tp3172
s(g126
g187
tp3173
(I203
I203
tp3174
s(g29
g26
tp3175
(I427
I632
tp3176
s(g243
g63
tp3177
(I978
I13
tp3178
s(g72
g161
tp3179
(I0
I1000
tp3180
s(g250
g29
tp3181
(I204
I199
tp3182
s(g97
g22
tp3183
(I600
I600
tp3184
s(g44
g91
tp3185
(I600
I600
tp3186
s(g26
g174
tp3187
(I994
I9
tp3188
s(g32
g57
tp3189
(I600
I600
tp3190
s(g119
g60
tp3191
(I0
I1000
tp3192
s(g243
g50
tp3193
(I600
I600
tp3194
s(g66
g60
tp3195
(I0
I1000
tp3196
s(g32
g22
tp3197
(I600
I600
tp3198
s(g202
g227
tp3199
(I681
I416
tp3200
s(g13
g36
tp3201
(I203
I203
tp3202
s(g25
g40
tp3203
(I800
I300
tp3204
s(g154
g91
tp3205
(I600
I600
tp3206
s(g73
g43
tp3207
(I600
I600
tp3208
s(g49
g72
tp3209
(I3
I998
tp3210
s(g164
g13
tp3211
(I600
I600
tp3212
s(g144
g22
tp3213
(I600
I600
tp3214
s(g49
g145
tp3215
(I600
I600
tp3216
s(g126
g91
tp3217
(I600
I600
tp3218
s(g56
g202
tp3219
(I456
I661
tp3220
s(g144
g154
tp3221
(I600
I600
tp3222
s(g73
g174
tp3223
(I600
I600
tp3224
s(g105
g50
tp3225
(I600
I600
tp3226
s(g79
g90
tp3227
(I600
I600
tp3228
s(g40
g167
tp3229
(I592
I597
tp3230
s(g167
g218
tp3231
(I600
I595
tp3232
s(g9
g243
tp3233
(I600
I600
tp3234
s(g218
g227
tp3235
(I978
I23
tp3236
s(g25
g133
tp3237
(I138
I583
tp3238
s(g187
g76
tp3239
(I200
I200
tp3240
s(g21
g243
tp3241
(I208
I198
tp3242
s(g40
g44
tp3243
(I600
I600
tp3244
s(g40
g13
tp3245
(I600
I600
tp3246
s(g119
g98
tp3247
(I995
I5
tp3248
s(g69
g76
tp3249
(I600
I600
tp3250
s(g22
g60
tp3251
(I0
I1000
tp3252
s(g40
g91
tp3253
(I600
I600
tp3254
s(g218
g174
tp3255
(I600
I600
tp3256
s(g63
g18
tp3257
(I0
I1000
tp3258
s(g243
g164
tp3259
(I600
I600
tp3260
s(g79
g63
tp3261
(I420
I420
tp3262
s(g137
g114
tp3263
(I0
I1000
tp3264
s(g213
g114
tp3265
(I0
I1000
tp3266
s(g90
g26
tp3267
(I811
I231
tp3268
s(g57
g76
tp3269
(I600
I600
tp3270
s(g144
g50
tp3271
(I600
I600
tp3272
s(g13
g18
tp3273
(I0
I1000
tp3274
s(g213
g119
tp3275
(I600
I595
tp3276
s(g94
g53
tp3277
(I967
I32
tp3278
s(g236
g26
tp3279
(I811
I231
tp3280
s(g144
g10
tp3281
(I0
I1000
tp3282
s(g145
g57
tp3283
(I600
I600
tp3284
s(g137
g79
tp3285
(I600
I600
tp3286
s(g43
g79
tp3287
(I600
I600
tp3288
s(g167
g85
tp3289
(I596
I596
tp3290
s(g213
g35
tp3291
(I600
I595
tp3292
s(g98
g14
tp3293
(I596
I601
tp3294
s(g13
g187
tp3295
(I203
I203
tp3296
s(g21
g119
tp3297
(I204
I199
tp3298
s(g161
g114
tp3299
(I600
I600
tp3300
s(g21
g9
tp3301
(I204
I199
tp3302
s(g91
g60
tp3303
(I0
I1000
tp3304
s(g136
g213
tp3305
(I21
I976
tp3306
s(g39
g63
tp3307
(I0
I1000
tp3308
s(g50
g36
tp3309
(I592
I597
tp3310
s(g137
g85
tp3311
(I600
I600
tp3312
s(g40
g145
tp3313
(I600
I600
tp3314
s(g202
g174
tp3315
(I600
I600
tp3316
s(g50
g145
tp3317
(I600
I600
tp3318
s(g243
g114
tp3319
(I0
I1000
tp3320
s(g40
g63
tp3321
(I520
I320
tp3322
s(g119
g36
tp3323
(I203
I203
tp3324
s(g105
g202
tp3325
(I600
I600
tp3326
s(g105
g32
tp3327
(I600
I600
tp3328
s(g17
g161
tp3329
(I0
I1000
tp3330
s(g56
g114
tp3331
(I0
I1000
tp3332
s(g22
g35
tp3333
(I600
I600
tp3334
s(g144
g76
tp3335
(I600
I600
tp3336
s(g40
g50
tp3337
(I600
I600
tp3338
s(g39
g14
tp3339
(I594
I599
tp3340
s(g97
g14
tp3341
(I600
I600
tp3342
s(g126
g57
tp3343
(I600
I600
tp3344
s(g250
g136
tp3345
(I996
I1
tp3346
s(g25
g66
tp3347
(I800
I300
tp3348
s(g236
g60
tp3349
(I0
I1000
tp3350
s(g154
g161
tp3351
(I0
I1000
tp3352
s(g25
g114
tp3353
(I0
I1000
tp3354
s(g39
g90
tp3355
(I552
I627
tp3356
s(g9
g114
tp3357
(I0
I1000
tp3358
s(g43
g29
tp3359
(I600
I600
tp3360
s(g50
g202
tp3361
(I600
I600
tp3362
s(g227
g114
tp3363
(I0
I1000
tp3364
s(g22
g227
tp3365
(I926
I86
tp3366
s(g36
g91
tp3367
(I602
I597
tp3368
s(g213
g137
tp3369
(I604
I594
tp3370
s(g154
g227
tp3371
(I959
I39
tp3372
s(g144
g126
tp3373
(I600
I600
tp3374
s(g40
g18
tp3375
(I0
I1000
tp3376
s(g29
g164
tp3377
(I600
I600
tp3378
s(g94
g167
tp3379
(I595
I600
tp3380
s(g119
g35
tp3381
(I201
I206
tp3382
s(g145
g56
tp3383
(I716
I401
tp3384
s(g22
g85
tp3385
(I600
I600
tp3386
s(g94
g119
tp3387
(I600
I600
tp3388
s(g144
g202
tp3389
(I600
I600
tp3390
s(g17
g98
tp3391
(I601
I596
tp3392
s(g136
g187
tp3393
(I450
I450
tp3394
s(g17
g85
tp3395
(I596
I596
tp3396
s(g69
g236
tp3397
(I600
I600
tp3398
s(g50
g133
tp3399
(I600
I600
tp3400
s(g43
g57
tp3401
(I600
I600
tp3402
s(g72
g98
tp3403
(I993
I8
tp3404
s(g39
g126
tp3405
(I591
I601
tp3406
s(g69
g66
tp3407
(I600
I600
tp3408
s(g144
g213
tp3409
(I594
I604
tp3410
s(g43
g114
tp3411
(I0
I1000
tp3412
s(g49
g136
tp3413
(I0
I1000
tp3414
s(g21
g236
tp3415
(I204
I199
tp3416
s(g49
g13
tp3417
(I600
I600
tp3418
s(g250
g145
tp3419
(I240
I190
tp3420
s(g144
g18
tp3421
(I0
I1000
tp3422
s(g10
g161
tp3423
(I1000
I0
tp3424
s(g94
g60
tp3425
(I0
I1000
tp3426
s(g40
g202
tp3427
(I600
I600
tp3428
s(g126
g76
tp3429
(I600
I600
tp3430
s(g202
g35
tp3431
(I201
I206
tp3432
s(g56
g91
tp3433
(I749
I369
tp3434
s(g97
g32
tp3435
(I600
I600
tp3436
s(g137
g60
tp3437
(I0
I1000
tp3438
s(g39
g13
tp3439
(I570
I615
tp3440
s(g85
g18
tp3441
(I0
I1000
tp3442
s(g69
g119
tp3443
(I600
I600
tp3444
s(g17
g97
tp3445
(I604
I594
tp3446
s(g250
g17
tp3447
(I601
I591
tp3448
s(g97
g60
tp3449
(I0
I1000
tp3450
s(g39
g39
tp3451
(I598
I598
tp3452
s(g144
g187
tp3453
(I597
I602
tp3454
s(g66
g167
tp3455
(I593
I598
tp3456
s(g25
g154
tp3457
(I114
I594
tp3458
s(g17
g119
tp3459
(I600
I595
tp3460
s(g9
g97
tp3461
(I600
I600
tp3462
s(g136
g145
tp3463
(I141
I826
tp3464
s(g136
g218
tp3465
(I600
I265
tp3466
s(g136
g13
tp3467
(I141
I826
tp3468
s(g17
g84
tp3469
(I604
I594
tp3470
s(g49
g10
tp3471
(I0
I1000
tp3472
s(g17
g44
tp3473
(I600
I595
tp3474
s(g97
g236
tp3475
(I600
I600
tp3476
s(g94
g105
tp3477
(I600
I600
tp3478
s(g97
g10
tp3479
(I0
I1000
tp3480
s(g144
g40
tp3481
(I600
I600
tp3482
s(g43
g187
tp3483
(I587
I592
tp3484
s(g94
g236
tp3485
(I600
I600
tp3486
s(g137
g29
tp3487
(I600
I600
tp3488
s(g56
g174
tp3489
(I998
I3
tp3490
s(g218
g85
tp3491
(I600
I600
tp3492
s(g154
g26
tp3493
(I965
I35
tp3494
s(g21
g40
tp3495
(I204
I199
tp3496
s(g144
g39
tp3497
(I12
I992
tp3498
s(g39
g133
tp3499
(I540
I635
tp3500
s(g56
g76
tp3501
(I520
I520
tp3502
s(g243
g57
tp3503
(I600
I600
tp3504
s(g145
g154
tp3505
(I600
I600
tp3506
s(g250
g14
tp3507
(I204
I199
tp3508
s(g44
g114
tp3509
(I0
I1000
tp3510
s(g73
g44
tp3511
(I600
I600
tp3512
s(g243
g167
tp3513
(I594
I114
tp3514
s(g49
g66
tp3515
(I600
I600
tp3516
s(g29
g91
tp3517
(I600
I600
tp3518
s(g17
g39
tp3519
(I968
I33
tp3520
s(g145
g164
tp3521
(I600
I600
tp3522
s(g187
g187
tp3523
(I501
I496
tp3524
s(g9
g136
tp3525
(I450
I450
tp3526
s(g25
g91
tp3527
(I800
I300
tp3528
s(g84
g202
tp3529
(I600
I600
tp3530
s(g9
g39
tp3531
(I597
I597
tp3532
s(g218
g114
tp3533
(I0
I1000
tp3534
s(g136
g56
tp3535
(I1000
I0
tp3536
s(g202
g85
tp3537
(I600
I600
tp3538
s(g43
g218
tp3539
(I600
I600
tp3540
s(g43
g126
tp3541
(I600
I600
tp3542
s(g187
g14
tp3543
(I203
I203
tp3544
s(g137
g26
tp3545
(I781
I261
tp3546
s(g49
g105
tp3547
(I600
I600
tp3548
s(g84
g57
tp3549
(I600
I600
tp3550
s(g133
g187
tp3551
(I230
I230
tp3552
s(g32
g154
tp3553
(I600
I600
tp3554
s(g133
g174
tp3555
(I600
I600
tp3556
s(g39
g227
tp3557
(I3
I998
tp3558
s(g174
g18
tp3559
(I0
I1000
tp3560
s(g154
g236
tp3561
(I600
I600
tp3562
s(g250
g114
tp3563
(I0
I1000
tp3564
s(g72
g43
tp3565
(I490
I440
tp3566
s(g57
g14
tp3567
(I600
I600
tp3568
s(g36
g174
tp3569
(I602
I597
tp3570
s(g94
g91
tp3571
(I600
I600
tp3572
s(g90
g32
tp3573
(I600
I600
tp3574
s(g21
g202
tp3575
(I204
I199
tp3576
s(g69
g218
tp3577
(I600
I600
tp3578
s(g73
g227
tp3579
(I755
I340
tp3580
s(g144
g21
tp3581
(I0
I1000
tp3582
s(g66
g236
tp3583
(I600
I600
tp3584
s(g25
g50
tp3585
(I800
I300
tp3586
s(g119
g236
tp3587
(I600
I600
tp3588
s(g187
g218
tp3589
(I401
I401
tp3590
s(g243
g76
tp3591
(I600
I600
tp3592
s(g154
g14
tp3593
(I600
I600
tp3594
s(g72
g18
tp3595
(I0
I1000
tp3596
s(g133
g85
tp3597
(I600
I600
tp3598
s(g79
g53
tp3599
(I471
I571
tp3600
s(g21
g49
tp3601
(I1000
I0
tp3602
s(g167
g63
tp3603
(I100
I600
tp3604
s(g250
g98
tp3605
(I200
I200
tp3606
s(g14
g14
tp3607
(I600
I600
tp3608
s(g250
g13
tp3609
(I204
I199
tp3610
s(g66
g32
tp3611
(I600
I600
tp3612
s(g50
g35
tp3613
(I600
I600
tp3614
s(g72
g187
tp3615
(I450
I450
tp3616
s(g21
g114
tp3617
(I0
I1000
tp3618
s(g136
g69
tp3619
(I989
I9
tp3620
s(g213
g44
tp3621
(I600
I595
tp3622
s(g21
g76
tp3623
(I200
I200
tp3624
s(g50
g161
tp3625
(I0
I1000
tp3626
s(g50
g119
tp3627
(I600
I600
tp3628
s(g29
g187
tp3629
(I577
I582
tp3630
s(g49
g227
tp3631
(I3
I998
tp3632
s(g53
g119
tp3633
(I9
I989
tp3634
s(g29
g114
tp3635
(I0
I1000
tp3636
s(g97
g66
tp3637
(I600
I600
tp3638
s(g40
g57
tp3639
(I600
I600
tp3640
s(g94
g90
tp3641
(I600
I600
tp3642
s(g145
g218
tp3643
(I600
I600
tp3644
s(g84
g126
tp3645
(I600
I600
tp3646
s(g133
g36
tp3647
(I230
I230
tp3648
s(g105
g243
tp3649
(I600
I600
tp3650
s(g39
g10
tp3651
(I0
I1000
tp3652
s(g105
g236
tp3653
(I600
I600
tp3654
s(g53
g66
tp3655
(I537
I527
tp3656
s(g25
g17
tp3657
(I128
I588
tp3658
s(g49
g98
tp3659
(I597
I602
tp3660
s(g136
g114
tp3661
(I0
I1000
tp3662
s(g84
g29
tp3663
(I600
I600
tp3664
s(g35
g18
tp3665
(I0
I1000
tp3666
s(g164
g164
tp3667
(I600
I600
tp3668
s(g133
g44
tp3669
(I600
I600
tp3670
s(g49
g39
tp3671
(I12
I992
tp3672
s(g49
g85
tp3673
(I600
I600
tp3674
s(g72
g63
tp3675
(I0
I1000
tp3676
s(g126
g18
tp3677
(I0
I1000
tp3678
s(g213
g26
tp3679
(I970
I30
tp3680
s(g202
g63
tp3681
(I626
I216
tp3682
s(g57
g26
tp3683
(I757
I302
tp3684
s(g39
g174
tp3685
(I992
I12
tp3686
s(g136
g35
tp3687
(I159
I804
tp3688
s(g50
g60
tp3689
(I0
I1000
tp3690
s(g84
g22
tp3691
(I600
I600
tp3692
s(g72
g218
tp3693
(I602
I267
tp3694
s(g35
g187
tp3695
(I206
I206
tp3696
s(g126
g22
tp3697
(I600
I600
tp3698
s(g94
g72
tp3699
(I267
I602
tp3700
s(g25
g21
tp3701
(I100
I600
tp3702
s(g144
g243
tp3703
(I600
I600
tp3704
s(g50
g98
tp3705
(I599
I599
tp3706
s(g22
g26
tp3707
(I892
I117
tp3708
s(g9
g174
tp3709
(I600
I600
tp3710
s(g137
g56
tp3711
(I664
I454
tp3712
s(g43
g145
tp3713
(I600
I600
tp3714
s(g21
g137
tp3715
(I204
I199
tp3716
s(g21
g32
tp3717
(I252
I187
tp3718
s(g250
g161
tp3719
(I0
I1000
tp3720
s(g49
g60
tp3721
(I0
I1000
tp3722
s(g72
g29
tp3723
(I482
I452
tp3724
s(g21
g154
tp3725
(I216
I196
tp3726
s(g69
g60
tp3727
(I0
I1000
tp3728
ssb.