ccopy_reg
_reconstructor
p1
(caxelrod.tournament_manager
DeterministicCache
p2
c__builtin__
object
p3
NtRp4
(dp5
S'turns'
p6
I200
sS'cache'
p7
(dp8
(caxelrod.strategies.titfortat
TitForTat
p9
caxelrod.strategies.cooperator
TrickyCooperator
p10
tp11
(I550
I555
tp12
s(caxelrod.strategies.retaliate
LimitedRetaliate
p13
g13
tp14
(I600
I600
tp15
s(caxelrod.strategies.retaliate
Retaliate2
p16
caxelrod.strategies.mindcontrol
MindBender
p17
tp18
(I0
I1000
tp19
s(caxelrod.strategies.punisher
Punisher
p20
caxelrod.strategies.darwin
Darwin
p21
tp22
(I600
I600
tp23
s(caxelrod.strategies.forgiver
Forgiver
p24
caxelrod.strategies.titfortat
TwoTitsForTat
p25
tp26
(I600
I600
tp27
s(caxelrod.strategies.geller
GellerDefector
p28
caxelrod.strategies.mindcontrol
MindController
p29
tp30
(I0
I1000
tp31
s(caxelrod.strategies.punisher
InversePunisher
p32
caxelrod.strategies.mindcontrol
MindWarper
p33
tp34
(I0
I1000
tp35
s(caxelrod.strategies.titfortat
AntiTitForTat
p36
caxelrod.strategies.gobymajority
GoByMajority20
p37
tp38
(I490
I440
tp39
s(caxelrod.strategies.grudger
Davis
p40
g17
tp41
(I0
I1000
tp42
s(g24
g20
tp43
(I600
I600
tp44
s(caxelrod.strategies.appeaser
Appeaser
p45
caxelrod.strategies.mathematicalconstants
Golden
p46
tp47
(I967
I32
tp48
s(caxelrod.strategies.grumpy
Grumpy
p49
g20
tp50
(I600
I600
tp51
s(caxelrod.strategies.hunter
DefectorHunter
p52
caxelrod.strategies.retaliate
Retaliate3
p53
tp54
(I600
I600
tp55
s(g46
caxelrod.strategies.hunter
MetaHunter
p56
tp57
(I39
I959
tp58
s(caxelrod.strategies.oncebitten
FoolMeOnce
p59
g24
tp60
(I600
I600
tp61
s(caxelrod.strategies.titfortat
Bully
p62
caxelrod.strategies.titfortat
Shubik
p63
tp64
(I159
I804
tp65
s(g49
g56
tp66
(I600
I600
tp67
s(g52
g63
tp68
(I600
I600
tp69
s(g24
caxelrod.strategies.retaliate
LimitedRetaliate2
p70
tp71
(I600
I600
tp72
s(caxelrod.strategies.defector
TrickyDefector
p73
caxelrod.strategies.mindreader
ProtectedMindReader
p74
tp75
(I0
I1000
tp76
s(caxelrod.strategies.titfortat
HardTitFor2Tats
p77
g53
tp78
(I600
I600
tp79
s(g40
caxelrod.strategies.gobymajority
GoByMajority5
p80
tp81
(I600
I600
tp82
s(caxelrod.strategies.oncebitten
OnceBitten
p83
g20
tp84
(I600
I600
tp85
s(caxelrod.strategies.mindreader
MindReader
p86
g86
tp87
(I0
I1000
tp88
s(caxelrod.strategies.mathematicalconstants
Pi
p89
caxelrod.strategies.titfortat
SneakyTitForTat
p90
tp91
(I559
I559
tp92
s(g36
caxelrod.strategies.hunter
CooperatorHunter
p93
tp94
(I998
I3
tp95
s(g36
g80
tp96
(I473
I478
tp97
s(g37
caxelrod.strategies.memoryone
WinStayLoseShift
p98
tp99
(I600
I600
tp100
s(g83
caxelrod.strategies.retaliate
Retaliate
p101
tp102
(I600
I600
tp103
s(caxelrod.strategies.titfortat
HardTitForTat
p104
g104
tp105
(I600
I600
tp106
s(caxelrod.strategies.alternator
Alternator
p107
g10
tp108
(I800
I300
tp109
s(caxelrod.strategies.gobymajority
GoByMajority40
p110
caxelrod.strategies.retaliate
LimitedRetaliate3
p111
tp112
(I600
I600
tp113
s(g80
caxelrod.strategies.titfortat
SuspiciousTitForTat
p114
tp115
(I500
I500
tp116
s(g59
g29
tp117
(I0
I1000
tp118
s(caxelrod.strategies.cooperator
Cooperator
p119
g70
tp120
(I600
I600
tp121
s(g59
g16
tp122
(I600
I600
tp123
s(g46
g89
tp124
(I860
I205
tp125
s(caxelrod.strategies.hunter
AlternatorHunter
p126
g111
tp127
(I600
I600
tp128
s(caxelrod.strategies.hunter
RandomHunter
p129
g17
tp130
(I0
I1000
tp131
s(g32
g83
tp132
(I600
I600
tp133
s(g59
g25
tp134
(I600
I600
tp135
s(g36
g98
tp136
(I602
I267
tp137
s(g104
caxelrod.strategies.hunter
MathConstantHunter
p138
tp139
(I600
I600
tp140
s(caxelrod.strategies.forgiver
ForgivingTitForTat
p141
g80
tp142
(I600
I600
tp143
s(g24
g63
tp144
(I600
I600
tp145
s(g36
caxelrod.strategies.grudger
Grudger
p146
tp147
(I9
I989
tp148
s(g62
g20
tp149
(I222
I727
tp150
s(g24
g101
tp151
(I600
I600
tp152
s(caxelrod.strategies.titfortat
TitFor2Tats
p153
g17
tp154
(I0
I1000
tp155
s(g9
g90
tp156
(I597
I597
tp157
s(g36
g141
tp158
(I450
I450
tp159
s(g59
g114
tp160
(I597
I602
tp161
s(g119
g45
tp162
(I600
I600
tp163
s(g126
g13
tp164
(I600
I600
tp165
s(caxelrod.strategies.gobymajority
GoByMajority10
p166
g13
tp167
(I600
I600
tp168
s(caxelrod.strategies.grudger
ForgetfulGrudger
p169
caxelrod.strategies.titfortat
Tester
p170
tp171
(I203
I203
tp172
s(g119
g63
tp173
(I600
I600
tp174
s(g80
g53
tp175
(I600
I600
tp176
s(g110
g21
tp177
(I600
I600
tp178
s(g146
g63
tp179
(I201
I206
tp180
s(g77
g33
tp181
(I0
I1000
tp182
s(g98
caxelrod.strategies.geller
GellerCooperator
p183
tp184
(I600
I600
tp185
s(g45
g37
tp186
(I600
I600
tp187
s(g119
g146
tp188
(I600
I600
tp189
s(g111
g111
tp190
(I600
I600
tp191
s(g46
g170
tp192
(I498
I503
tp193
s(g141
g17
tp194
(I0
I1000
tp195
s(g98
g86
tp196
(I0
I1000
tp197
s(g52
g70
tp198
(I600
I600
tp199
s(g70
g170
tp200
(I239
I239
tp201
s(g20
caxelrod.strategies.mathematicalconstants
e
p202
tp203
(I681
I416
tp204
s(g10
g73
tp205
(I0
I1000
tp206
s(g45
g20
tp207
(I600
I600
tp208
s(g49
caxelrod.strategies.grudger
OppositeGrudger
p209
tp210
(I597
I602
tp211
s(g183
g28
tp212
(I1000
I0
tp213
s(g209
g21
tp214
(I602
I597
tp215
s(g52
g98
tp216
(I600
I600
tp217
s(g126
g80
tp218
(I600
I600
tp219
s(g111
g17
tp220
(I0
I1000
tp221
s(g101
g53
tp222
(I600
I600
tp223
s(g146
g101
tp224
(I600
I600
tp225
s(g93
g17
tp226
(I0
I1000
tp227
s(g101
g63
tp228
(I600
I600
tp229
s(g24
g29
tp230
(I0
I1000
tp231
s(g107
g110
tp232
(I800
I300
tp233
s(g146
g20
tp234
(I600
I600
tp235
s(g74
g74
tp236
(I0
I1000
tp237
s(g20
g17
tp238
(I0
I1000
tp239
s(g32
g56
tp240
(I600
I600
tp241
s(g126
g37
tp242
(I600
I600
tp243
s(g9
g166
tp244
(I600
I600
tp245
s(g209
g114
tp246
(I200
I200
tp247
s(g80
g56
tp248
(I600
I600
tp249
s(g170
g73
tp250
(I200
I200
tp251
s(g56
g10
tp252
(I965
I35
tp253
s(g101
g86
tp254
(I0
I1000
tp255
s(g62
g104
tp256
(I303
I628
tp257
s(g52
g24
tp258
(I600
I600
tp259
s(g36
g73
tp260
(I0
I1000
tp261
s(caxelrod.strategies.gobymajority
GoByMajority
p262
g49
tp263
(I600
I600
tp264
s(g138
g83
tp265
(I600
I600
tp266
s(g111
g56
tp267
(I600
I600
tp268
s(g262
g262
tp269
(I600
I600
tp270
s(g107
g202
tp271
(I796
I301
tp272
s(g89
g129
tp273
(I39
I959
tp274
s(g56
g86
tp275
(I0
I1000
tp276
s(g104
g63
tp277
(I600
I600
tp278
s(caxelrod.strategies.defector
Defector
p279
g77
tp280
(I208
I198
tp281
s(g93
g170
tp282
(I597
I602
tp283
s(g40
g110
tp284
(I600
I600
tp285
s(g166
g49
tp286
(I600
I600
tp287
s(g107
g28
tp288
(I400
I400
tp289
s(g110
g170
tp290
(I577
I582
tp291
s(g129
g101
tp292
(I600
I600
tp293
s(g9
g141
tp294
(I600
I600
tp295
s(g52
g104
tp296
(I600
I600
tp297
s(g36
g104
tp298
(I305
I630
tp299
s(g279
g262
tp300
(I204
I199
tp301
s(g36
g24
tp302
(I90
I890
tp303
s(g262
g89
tp304
(I374
I744
tp305
s(g40
g98
tp306
(I600
I600
tp307
s(g70
g90
tp308
(I587
I157
tp309
s(g126
g53
tp310
(I600
I600
tp311
s(g262
g80
tp312
(I600
I600
tp313
s(g169
g20
tp314
(I600
I600
tp315
s(g45
g63
tp316
(I600
I600
tp317
s(g93
g16
tp318
(I561
I621
tp319
s(g126
g83
tp320
(I600
I600
tp321
s(g25
g21
tp322
(I600
I600
tp323
s(g59
g32
tp324
(I600
I600
tp325
s(g10
g17
tp326
(I0
I1000
tp327
s(g146
g104
tp328
(I600
I600
tp329
s(g107
g46
tp330
(I664
I334
tp331
s(g56
g114
tp332
(I237
I237
tp333
s(g104
g202
tp334
(I673
I423
tp335
s(g126
g101
tp336
(I600
I600
tp337
s(g111
g53
tp338
(I600
I600
tp339
s(g262
g146
tp340
(I600
I600
tp341
s(g126
g86
tp342
(I0
I1000
tp343
s(g166
g86
tp344
(I0
I1000
tp345
s(g107
g126
tp346
(I114
I594
tp347
s(g24
g56
tp348
(I600
I600
tp349
s(g119
g73
tp350
(I0
I1000
tp351
s(g37
g53
tp352
(I600
I600
tp353
s(g9
g32
tp354
(I600
I600
tp355
s(g17
g86
tp356
(I1000
I0
tp357
s(g70
g20
tp358
(I600
I600
tp359
s(g37
g90
tp360
(I592
I597
tp361
s(g138
g21
tp362
(I600
I600
tp363
s(g104
g70
tp364
(I600
I600
tp365
s(g93
g86
tp366
(I0
I1000
tp367
s(g46
g20
tp368
(I376
I656
tp369
s(g80
g80
tp370
(I600
I600
tp371
s(g169
g202
tp372
(I755
I340
tp373
s(g46
g153
tp374
(I695
I370
tp375
s(g40
g104
tp376
(I600
I600
tp377
s(g63
g170
tp378
(I206
I206
tp379
s(g45
g83
tp380
(I600
I600
tp381
s(g80
g89
tp382
(I379
I739
tp383
s(g119
g141
tp384
(I600
I600
tp385
s(g166
g110
tp386
(I600
I600
tp387
s(g126
g110
tp388
(I600
I600
tp389
s(g28
g17
tp390
(I1
I996
tp391
s(g93
g129
tp392
(I33
I968
tp393
s(g138
g138
tp394
(I600
I600
tp395
s(g73
g98
tp396
(I600
I100
tp397
s(g146
g70
tp398
(I600
I600
tp399
s(g146
g86
tp400
(I0
I1000
tp401
s(g20
g29
tp402
(I0
I1000
tp403
s(g126
g28
tp404
(I600
I600
tp405
s(g70
g74
tp406
(I0
I1000
tp407
s(g73
g21
tp408
(I1000
I0
tp409
s(g70
g63
tp410
(I600
I600
tp411
s(g59
g166
tp412
(I600
I600
tp413
s(g166
g202
tp414
(I314
I784
tp415
s(g24
g209
tp416
(I615
I575
tp417
s(g9
g59
tp418
(I600
I600
tp419
s(g77
g10
tp420
(I542
I552
tp421
s(g56
g16
tp422
(I600
I600
tp423
s(g209
g53
tp424
(I542
I637
tp425
s(g170
g10
tp426
(I557
I552
tp427
s(g56
g73
tp428
(I968
I23
tp429
s(g46
g49
tp430
(I647
I412
tp431
s(g59
g89
tp432
(I984
I14
tp433
s(g90
g90
tp434
(I596
I596
tp435
s(g13
g183
tp436
(I600
I600
tp437
s(g170
g86
tp438
(I0
I1000
tp439
s(g141
g21
tp440
(I600
I600
tp441
s(g170
g170
tp442
(I501
I496
tp443
s(g119
g166
tp444
(I600
I600
tp445
s(g13
g153
tp446
(I600
I600
tp447
s(g32
g74
tp448
(I0
I1000
tp449
s(g40
g86
tp450
(I0
I1000
tp451
s(g46
g86
tp452
(I0
I1000
tp453
s(g73
g29
tp454
(I0
I1000
tp455
s(g129
g129
tp456
(I600
I600
tp457
s(g114
g114
tp458
(I200
I200
tp459
s(g141
g90
tp460
(I597
I597
tp461
s(g70
g28
tp462
(I600
I600
tp463
s(g9
g153
tp464
(I600
I600
tp465
s(g83
g53
tp466
(I600
I600
tp467
s(g37
g29
tp468
(I0
I1000
tp469
s(g24
g166
tp470
(I600
I600
tp471
s(g16
g170
tp472
(I203
I203
tp473
s(g77
g16
tp474
(I600
I600
tp475
s(g40
g146
tp476
(I600
I600
tp477
s(g32
g209
tp478
(I601
I596
tp479
s(g46
g129
tp480
(I39
I959
tp481
s(g262
g74
tp482
(I0
I1000
tp483
s(g104
g73
tp484
(I525
I275
tp485
s(g13
g33
tp486
(I0
I1000
tp487
s(g25
g98
tp488
(I600
I600
tp489
s(g45
g40
tp490
(I600
I600
tp491
s(g107
g74
tp492
(I0
I1000
tp493
s(g45
g202
tp494
(I978
I23
tp495
s(g80
g32
tp496
(I600
I600
tp497
s(g119
g16
tp498
(I600
I600
tp499
s(g129
g86
tp500
(I0
I1000
tp501
s(g110
g98
tp502
(I600
I600
tp503
s(g32
g20
tp504
(I600
I600
tp505
s(g126
g17
tp506
(I0
I1000
tp507
s(g262
g104
tp508
(I600
I600
tp509
s(g32
g10
tp510
(I811
I231
tp511
s(g25
g202
tp512
(I631
I466
tp513
s(g36
g89
tp514
(I992
I7
tp515
s(g52
g202
tp516
(I3
I998
tp517
s(g13
g29
tp518
(I0
I1000
tp519
s(g146
g129
tp520
(I600
I600
tp521
s(g107
g70
tp522
(I155
I585
tp523
s(g169
g73
tp524
(I698
I173
tp525
s(g36
g46
tp526
(I986
I11
tp527
s(g45
g138
tp528
(I600
I600
tp529
s(g279
g36
tp530
(I1000
I0
tp531
s(g146
g146
tp532
(I600
I600
tp533
s(g52
g59
tp534
(I600
I600
tp535
s(g93
g73
tp536
(I0
I1000
tp537
s(g129
g153
tp538
(I600
I600
tp539
s(g101
g73
tp540
(I736
I151
tp541
s(g119
g86
tp542
(I0
I1000
tp543
s(g63
g17
tp544
(I0
I1000
tp545
s(g93
g141
tp546
(I597
I597
tp547
s(g45
g70
tp548
(I600
I600
tp549
s(g49
g90
tp550
(I559
I164
tp551
s(g93
g146
tp552
(I18
I983
tp553
s(g146
g111
tp554
(I600
I600
tp555
s(g52
g16
tp556
(I600
I600
tp557
s(g49
g49
tp558
(I600
I600
tp559
s(g16
g153
tp560
(I600
I600
tp561
s(g52
g29
tp562
(I0
I1000
tp563
s(g32
g28
tp564
(I600
I600
tp565
s(g77
g129
tp566
(I600
I600
tp567
s(g37
g89
tp568
(I374
I744
tp569
s(g119
g202
tp570
(I3
I998
tp571
s(g56
g83
tp572
(I600
I600
tp573
s(g153
g29
tp574
(I0
I1000
tp575
s(g9
g202
tp576
(I549
I549
tp577
s(g146
g17
tp578
(I0
I1000
tp579
s(g16
g98
tp580
(I600
I600
tp581
s(g111
g89
tp582
(I746
I366
tp583
s(g126
g36
tp584
(I3
I998
tp585
s(g107
g90
tp586
(I650
I400
tp587
s(g93
g89
tp588
(I3
I998
tp589
s(g21
g17
tp590
(I0
I1000
tp591
s(g49
g10
tp592
(I447
I577
tp593
s(g202
g21
tp594
(I998
I3
tp595
s(g153
g25
tp596
(I600
I600
tp597
s(g24
g202
tp598
(I703
I393
tp599
s(g73
g86
tp600
(I0
I1000
tp601
s(g70
g153
tp602
(I600
I600
tp603
s(g16
g53
tp604
(I600
I600
tp605
s(g62
g183
tp606
(I400
I400
tp607
s(g110
g114
tp608
(I577
I582
tp609
s(g111
g73
tp610
(I771
I116
tp611
s(g46
g183
tp612
(I466
I466
tp613
s(g279
g202
tp614
(I1000
I0
tp615
s(g62
g153
tp616
(I560
I360
tp617
s(g141
g209
tp618
(I599
I599
tp619
s(g279
g70
tp620
(I252
I187
tp621
s(g62
g111
tp622
(I104
I864
tp623
s(g141
g183
tp624
(I600
I600
tp625
s(g93
g262
tp626
(I602
I587
tp627
s(g56
g63
tp628
(I600
I600
tp629
s(g93
g49
tp630
(I559
I599
tp631
s(g166
g209
tp632
(I599
I599
tp633
s(g77
g170
tp634
(I597
I602
tp635
s(g56
g202
tp636
(I959
I39
tp637
s(g40
g37
tp638
(I600
I600
tp639
s(g10
g86
tp640
(I0
I1000
tp641
s(g77
g28
tp642
(I600
I600
tp643
s(g13
g70
tp644
(I600
I600
tp645
s(g45
g129
tp646
(I600
I600
tp647
s(g114
g98
tp648
(I401
I401
tp649
s(g73
g183
tp650
(I200
I200
tp651
s(g141
g262
tp652
(I600
I600
tp653
s(g89
g10
tp654
(I998
I3
tp655
s(g45
g146
tp656
(I600
I600
tp657
s(g166
g101
tp658
(I600
I600
tp659
s(g170
g74
tp660
(I0
I1000
tp661
s(g9
g70
tp662
(I600
I600
tp663
s(g36
g74
tp664
(I0
I1000
tp665
s(g25
g29
tp666
(I0
I1000
tp667
s(g209
g101
tp668
(I572
I617
tp669
s(g62
g29
tp670
(I0
I1000
tp671
s(g107
g45
tp672
(I450
I450
tp673
s(g24
g141
tp674
(I600
I600
tp675
s(g13
g90
tp676
(I609
I144
tp677
s(g70
g25
tp678
(I600
I600
tp679
s(g80
g90
tp680
(I591
I591
tp681
s(g114
g21
tp682
(I602
I597
tp683
s(g16
g63
tp684
(I600
I600
tp685
s(g138
g183
tp686
(I600
I600
tp687
s(g89
g98
tp688
(I29
I974
tp689
s(g93
g169
tp690
(I570
I615
tp691
s(g45
g77
tp692
(I600
I600
tp693
s(g166
g17
tp694
(I0
I1000
tp695
s(g119
g10
tp696
(I9
I994
tp697
s(g279
g129
tp698
(I1000
I0
tp699
s(g9
g24
tp700
(I600
I600
tp701
s(g141
g32
tp702
(I600
I600
tp703
s(g25
g74
tp704
(I0
I1000
tp705
s(g183
g33
tp706
(I0
I1000
tp707
s(g13
g56
tp708
(I600
I600
tp709
s(g93
g40
tp710
(I43
I958
tp711
s(g40
g73
tp712
(I938
I53
tp713
s(g37
g114
tp714
(I587
I592
tp715
s(g93
g101
tp716
(I570
I615
tp717
s(g80
g77
tp718
(I600
I600
tp719
s(g40
g183
tp720
(I600
I600
tp721
s(g279
g86
tp722
(I0
I1000
tp723
s(g169
g111
tp724
(I600
I600
tp725
s(g166
g28
tp726
(I600
I600
tp727
s(g153
g202
tp728
(I309
I789
tp729
s(g37
g111
tp730
(I600
I600
tp731
s(g89
g170
tp732
(I557
I562
tp733
s(g45
g153
tp734
(I600
I600
tp735
s(g10
g202
tp736
(I3
I998
tp737
s(g37
g25
tp738
(I600
I600
tp739
s(g56
g25
tp740
(I600
I600
tp741
s(g63
g153
tp742
(I600
I600
tp743
s(g166
g25
tp744
(I600
I600
tp745
s(g59
g170
tp746
(I597
I602
tp747
s(g56
g20
tp748
(I600
I600
tp749
s(g107
g52
tp750
(I800
I300
tp751
s(g80
g17
tp752
(I0
I1000
tp753
s(g153
g98
tp754
(I600
I600
tp755
s(g46
g10
tp756
(I998
I3
tp757
s(g111
g10
tp758
(I810
I240
tp759
s(g9
g73
tp760
(I364
I369
tp761
s(g53
g98
tp762
(I600
I600
tp763
s(g29
g29
tp764
(I0
I1000
tp765
s(g126
g90
tp766
(I6
I996
tp767
s(g59
g104
tp768
(I600
I600
tp769
s(g24
g21
tp770
(I600
I600
tp771
s(g36
g166
tp772
(I509
I429
tp773
s(g90
g153
tp774
(I599
I594
tp775
s(g9
g170
tp776
(I500
I500
tp777
s(g129
g63
tp778
(I600
I600
tp779
s(g279
g21
tp780
(I1000
I0
tp781
s(g37
g86
tp782
(I0
I1000
tp783
s(g93
g52
tp784
(I992
I12
tp785
s(g83
g25
tp786
(I600
I600
tp787
s(g110
g28
tp788
(I600
I600
tp789
s(g119
g262
tp790
(I600
I600
tp791
s(g110
g56
tp792
(I600
I600
tp793
s(g13
g170
tp794
(I230
I230
tp795
s(g40
g29
tp796
(I0
I1000
tp797
s(g202
g74
tp798
(I0
I1000
tp799
s(g141
g166
tp800
(I600
I600
tp801
s(g36
g16
tp802
(I117
I857
tp803
s(g89
g73
tp804
(I0
I1000
tp805
s(g107
g119
tp806
(I800
I300
tp807
s(g56
g28
tp808
(I600
I600
tp809
s(g107
g40
tp810
(I135
I585
tp811
s(g62
g77
tp812
(I472
I462
tp813
s(g59
g80
tp814
(I600
I600
tp815
s(g93
g59
tp816
(I23
I978
tp817
s(g83
g17
tp818
(I0
I1000
tp819
s(g141
g16
tp820
(I600
I600
tp821
s(g209
g153
tp822
(I602
I597
tp823
s(g170
g33
tp824
(I0
I1000
tp825
s(g111
g114
tp826
(I230
I230
tp827
s(g279
g28
tp828
(I200
I200
tp829
s(g166
g53
tp830
(I600
I600
tp831
s(g56
g170
tp832
(I237
I237
tp833
s(g80
g209
tp834
(I599
I599
tp835
s(g209
g183
tp836
(I200
I200
tp837
s(g90
g86
tp838
(I0
I1000
tp839
s(g36
g40
tp840
(I49
I949
tp841
s(g110
g10
tp842
(I427
I632
tp843
s(g126
g45
tp844
(I600
I600
tp845
s(g32
g73
tp846
(I717
I162
tp847
s(g166
g83
tp848
(I600
I600
tp849
s(g20
g86
tp850
(I0
I1000
tp851
s(g262
g153
tp852
(I600
I600
tp853
s(g59
g21
tp854
(I600
I600
tp855
s(g119
g93
tp856
(I12
I992
tp857
s(g20
g16
tp858
(I600
I600
tp859
s(g53
g63
tp860
(I600
I600
tp861
s(g146
g170
tp862
(I203
I203
tp863
s(g46
g77
tp864
(I537
I527
tp865
s(g209
g129
tp866
(I26
I981
tp867
s(g104
g74
tp868
(I0
I1000
tp869
s(g138
g33
tp870
(I0
I1000
tp871
s(g202
g86
tp872
(I0
I1000
tp873
s(g101
g10
tp874
(I735
I330
tp875
s(g10
g25
tp876
(I518
I583
tp877
s(g62
g89
tp878
(I1000
I0
tp879
s(g32
g129
tp880
(I600
I600
tp881
s(g49
g153
tp882
(I600
I600
tp883
s(g169
g29
tp884
(I0
I1000
tp885
s(g110
g183
tp886
(I600
I600
tp887
s(g119
g40
tp888
(I600
I600
tp889
s(g126
g73
tp890
(I0
I1000
tp891
s(g110
g209
tp892
(I599
I599
tp893
s(g63
g28
tp894
(I600
I600
tp895
s(g107
g262
tp896
(I800
I300
tp897
s(g13
g111
tp898
(I600
I600
tp899
s(g59
g141
tp900
(I600
I600
tp901
s(g126
g62
tp902
(I0
I1000
tp903
s(g24
g183
tp904
(I600
I600
tp905
s(g46
g29
tp906
(I0
I1000
tp907
s(g24
g32
tp908
(I600
I600
tp909
s(g169
g74
tp910
(I0
I1000
tp911
s(g59
g63
tp912
(I600
I600
tp913
s(g9
g37
tp914
(I600
I600
tp915
s(g170
g98
tp916
(I401
I401
tp917
s(g126
g52
tp918
(I600
I600
tp919
s(g53
g202
tp920
(I783
I308
tp921
s(g101
g74
tp922
(I0
I1000
tp923
s(g279
g279
tp924
(I200
I200
tp925
s(g279
g209
tp926
(I200
I200
tp927
s(g45
g74
tp928
(I0
I1000
tp929
s(g46
g111
tp930
(I244
I814
tp931
s(g21
g86
tp932
(I0
I1000
tp933
s(g262
g110
tp934
(I600
I600
tp935
s(g53
g29
tp936
(I0
I1000
tp937
s(g107
g89
tp938
(I796
I301
tp939
s(g93
g90
tp940
(I6
I996
tp941
s(g59
g86
tp942
(I0
I1000
tp943
s(g21
g29
tp944
(I0
I1000
tp945
s(g141
g77
tp946
(I600
I600
tp947
s(g56
g129
tp948
(I600
I600
tp949
s(g49
g86
tp950
(I0
I1000
tp951
s(g93
g153
tp952
(I599
I594
tp953
s(g9
g138
tp954
(I600
I600
tp955
s(g138
g114
tp956
(I243
I243
tp957
s(g107
g183
tp958
(I400
I400
tp959
s(g89
g183
tp960
(I520
I520
tp961
s(g16
g86
tp962
(I0
I1000
tp963
s(g83
g86
tp964
(I0
I1000
tp965
s(g36
g170
tp966
(I450
I450
tp967
s(g9
g28
tp968
(I600
I600
tp969
s(g24
g46
tp970
(I773
I273
tp971
s(g262
g202
tp972
(I314
I784
tp973
s(g80
g21
tp974
(I600
I600
tp975
s(g169
g98
tp976
(I600
I600
tp977
s(g32
g202
tp978
(I776
I316
tp979
s(g46
g209
tp980
(I861
I206
tp981
s(g126
g126
tp982
(I600
I600
tp983
s(g262
g16
tp984
(I600
I600
tp985
s(g45
g28
tp986
(I600
I600
tp987
s(g166
g33
tp988
(I0
I1000
tp989
s(g9
g13
tp990
(I600
I600
tp991
s(g59
g70
tp992
(I600
I600
tp993
s(g169
g166
tp994
(I600
I600
tp995
s(g37
g129
tp996
(I600
I600
tp997
s(g107
g93
tp998
(I800
I300
tp999
s(g37
g170
tp1000
(I587
I592
tp1001
s(g62
g83
tp1002
(I207
I762
tp1003
s(g101
g17
tp1004
(I0
I1000
tp1005
s(g83
g28
tp1006
(I600
I600
tp1007
s(g53
g90
tp1008
(I602
I127
tp1009
s(g17
g74
tp1010
(I1000
I0
tp1011
s(g45
g62
tp1012
(I265
I600
tp1013
s(g138
g16
tp1014
(I600
I600
tp1015
s(g37
g73
tp1016
(I451
I421
tp1017
s(g89
g33
tp1018
(I0
I1000
tp1019
s(g80
g29
tp1020
(I0
I1000
tp1021
s(g104
g170
tp1022
(I203
I203
tp1023
s(g62
g101
tp1024
(I141
I826
tp1025
s(g126
g49
tp1026
(I600
I600
tp1027
s(g119
g183
tp1028
(I600
I600
tp1029
s(g62
g166
tp1030
(I504
I434
tp1031
s(g169
g13
tp1032
(I600
I600
tp1033
s(g129
g114
tp1034
(I582
I587
tp1035
s(g52
g52
tp1036
(I600
I600
tp1037
s(g183
g17
tp1038
(I1
I996
tp1039
s(g9
g83
tp1040
(I600
I600
tp1041
s(g62
g53
tp1042
(I78
I903
tp1043
s(g262
g90
tp1044
(I592
I597
tp1045
s(g126
g209
tp1046
(I597
I602
tp1047
s(g111
g86
tp1048
(I0
I1000
tp1049
s(g59
g17
tp1050
(I0
I1000
tp1051
s(g45
g13
tp1052
(I600
I600
tp1053
s(g37
g104
tp1054
(I600
I600
tp1055
s(g53
g21
tp1056
(I600
I600
tp1057
s(g169
g24
tp1058
(I600
I600
tp1059
s(g169
g28
tp1060
(I600
I600
tp1061
s(g45
g33
tp1062
(I0
I1000
tp1063
s(g63
g202
tp1064
(I741
I351
tp1065
s(g146
g10
tp1066
(I985
I15
tp1067
s(g36
g169
tp1068
(I144
I824
tp1069
s(g40
g16
tp1070
(I600
I600
tp1071
s(g209
g98
tp1072
(I5
I995
tp1073
s(g16
g73
tp1074
(I774
I129
tp1075
s(g111
g209
tp1076
(I637
I542
tp1077
s(g32
g86
tp1078
(I0
I1000
tp1079
s(g40
g74
tp1080
(I0
I1000
tp1081
s(g80
g83
tp1082
(I600
I600
tp1083
s(g262
g114
tp1084
(I500
I500
tp1085
s(g46
g17
tp1086
(I0
I1000
tp1087
s(g49
g17
tp1088
(I0
I1000
tp1089
s(g111
g129
tp1090
(I600
I600
tp1091
s(g279
g59
tp1092
(I208
I198
tp1093
s(g119
g98
tp1094
(I600
I600
tp1095
s(g119
g9
tp1096
(I600
I600
tp1097
s(g119
g52
tp1098
(I600
I600
tp1099
s(g166
g10
tp1100
(I498
I568
tp1101
s(g9
g17
tp1102
(I0
I1000
tp1103
s(g166
g183
tp1104
(I600
I600
tp1105
s(g141
g25
tp1106
(I600
I600
tp1107
s(g146
g202
tp1108
(I989
I9
tp1109
s(g9
g63
tp1110
(I201
I206
tp1111
s(g129
g10
tp1112
(I965
I35
tp1113
s(g107
g86
tp1114
(I0
I1000
tp1115
s(g98
g29
tp1116
(I0
I1000
tp1117
s(g119
g53
tp1118
(I600
I600
tp1119
s(g62
g73
tp1120
(I1
I996
tp1121
s(g70
g98
tp1122
(I600
I600
tp1123
s(g129
g74
tp1124
(I0
I1000
tp1125
s(g45
g141
tp1126
(I600
I600
tp1127
s(g24
g17
tp1128
(I0
I1000
tp1129
s(g279
g45
tp1130
(I600
I100
tp1131
s(g138
g101
tp1132
(I600
I600
tp1133
s(g36
g202
tp1134
(I992
I7
tp1135
s(g107
g13
tp1136
(I143
I588
tp1137
s(g62
g110
tp1138
(I474
I459
tp1139
s(g70
g202
tp1140
(I760
I335
tp1141
s(g83
g89
tp1142
(I414
I704
tp1143
s(g46
g46
tp1144
(I466
I466
tp1145
s(g262
g32
tp1146
(I600
I600
tp1147
s(g70
g53
tp1148
(I600
I600
tp1149
s(g170
g183
tp1150
(I200
I200
tp1151
s(g166
g16
tp1152
(I600
I600
tp1153
s(g126
g20
tp1154
(I600
I600
tp1155
s(g110
g73
tp1156
(I488
I368
tp1157
s(g89
g74
tp1158
(I0
I1000
tp1159
s(g146
g77
tp1160
(I600
I600
tp1161
s(g63
g33
tp1162
(I0
I1000
tp1163
s(g45
g49
tp1164
(I600
I600
tp1165
s(g62
g24
tp1166
(I87
I892
tp1167
s(g45
g80
tp1168
(I600
I600
tp1169
s(g107
g20
tp1170
(I171
I581
tp1171
s(g119
g101
tp1172
(I600
I600
tp1173
s(g107
g25
tp1174
(I107
I597
tp1175
s(g9
g40
tp1176
(I600
I600
tp1177
s(g169
g53
tp1178
(I600
I600
tp1179
s(g52
g77
tp1180
(I600
I600
tp1181
s(g110
g17
tp1182
(I0
I1000
tp1183
s(g83
g21
tp1184
(I600
I600
tp1185
s(g46
g16
tp1186
(I268
I788
tp1187
s(g93
g32
tp1188
(I552
I627
tp1189
s(g110
g104
tp1190
(I600
I600
tp1191
s(g183
g29
tp1192
(I0
I1000
tp1193
s(g32
g183
tp1194
(I600
I600
tp1195
s(g40
g49
tp1196
(I600
I600
tp1197
s(g52
g90
tp1198
(I6
I996
tp1199
s(g13
g101
tp1200
(I600
I600
tp1201
s(g37
g202
tp1202
(I314
I784
tp1203
s(g13
g114
tp1204
(I230
I230
tp1205
s(g62
g13
tp1206
(I141
I826
tp1207
s(g9
g89
tp1208
(I559
I559
tp1209
s(g77
g29
tp1210
(I0
I1000
tp1211
s(g80
g101
tp1212
(I600
I600
tp1213
s(g107
g170
tp1214
(I503
I498
tp1215
s(g29
g74
tp1216
(I600
I600
tp1217
s(g141
g129
tp1218
(I600
I600
tp1219
s(g52
g153
tp1220
(I600
I600
tp1221
s(g107
g62
tp1222
(I397
I402
tp1223
s(g138
g129
tp1224
(I600
I600
tp1225
s(g153
g73
tp1226
(I310
I460
tp1227
s(g28
g86
tp1228
(I0
I1000
tp1229
s(g45
g101
tp1230
(I600
I600
tp1231
s(g16
g10
tp1232
(I757
I302
tp1233
s(g262
g83
tp1234
(I600
I600
tp1235
s(g52
g73
tp1236
(I11
I981
tp1237
s(g36
g129
tp1238
(I39
I959
tp1239
s(g80
g104
tp1240
(I600
I600
tp1241
s(g279
g153
tp1242
(I208
I198
tp1243
s(g45
g98
tp1244
(I600
I600
tp1245
s(g40
g89
tp1246
(I949
I49
tp1247
s(g119
g77
tp1248
(I600
I600
tp1249
s(g24
g153
tp1250
(I600
I600
tp1251
s(g32
g101
tp1252
(I600
I600
tp1253
s(g141
g70
tp1254
(I600
I600
tp1255
s(g56
g33
tp1256
(I0
I1000
tp1257
s(g49
g83
tp1258
(I600
I600
tp1259
s(g37
g46
tp1260
(I408
I653
tp1261
s(g119
g90
tp1262
(I6
I996
tp1263
s(g90
g202
tp1264
(I549
I549
tp1265
s(g77
g77
tp1266
(I600
I600
tp1267
s(g40
g166
tp1268
(I600
I600
tp1269
s(g101
g29
tp1270
(I0
I1000
tp1271
s(g107
g104
tp1272
(I107
I597
tp1273
s(g93
g63
tp1274
(I597
I597
tp1275
s(g93
g29
tp1276
(I0
I1000
tp1277
s(g86
g74
tp1278
(I600
I600
tp1279
s(g77
g183
tp1280
(I600
I600
tp1281
s(g119
g153
tp1282
(I600
I600
tp1283
s(g107
g101
tp1284
(I143
I588
tp1285
s(g13
g73
tp1286
(I736
I151
tp1287
s(g62
g37
tp1288
(I482
I447
tp1289
s(g77
g90
tp1290
(I593
I598
tp1291
s(g59
g153
tp1292
(I600
I600
tp1293
s(g24
g86
tp1294
(I0
I1000
tp1295
s(g114
g74
tp1296
(I0
I1000
tp1297
s(g202
g28
tp1298
(I500
I500
tp1299
s(g77
g86
tp1300
(I0
I1000
tp1301
s(g62
g80
tp1302
(I480
I470
tp1303
s(g70
g21
tp1304
(I600
I600
tp1305
s(g20
g90
tp1306
(I617
I172
tp1307
s(g59
g90
tp1308
(I594
I114
tp1309
s(g114
g10
tp1310
(I557
I552
tp1311
s(g111
g153
tp1312
(I600
I600
tp1313
s(g49
g21
tp1314
(I600
I600
tp1315
s(g77
g202
tp1316
(I314
I784
tp1317
s(g101
g25
tp1318
(I600
I600
tp1319
s(g80
g16
tp1320
(I600
I600
tp1321
s(g90
g183
tp1322
(I596
I596
tp1323
s(g101
g202
tp1324
(I751
I346
tp1325
s(g45
g110
tp1326
(I600
I600
tp1327
s(g36
g32
tp1328
(I99
I879
tp1329
s(g119
g21
tp1330
(I600
I600
tp1331
s(g9
g101
tp1332
(I600
I600
tp1333
s(g40
g32
tp1334
(I600
I600
tp1335
s(g36
g20
tp1336
(I225
I725
tp1337
s(g17
g33
tp1338
(I1000
I0
tp1339
s(g114
g29
tp1340
(I0
I1000
tp1341
s(g141
g33
tp1342
(I0
I1000
tp1343
s(g40
g28
tp1344
(I600
I600
tp1345
s(g93
g10
tp1346
(I9
I994
tp1347
s(g119
g74
tp1348
(I0
I1000
tp1349
s(g62
g33
tp1350
(I0
I1000
tp1351
s(g56
g29
tp1352
(I0
I1000
tp1353
s(g166
g153
tp1354
(I600
I600
tp1355
s(g166
g73
tp1356
(I411
I476
tp1357
s(g138
g17
tp1358
(I0
I1000
tp1359
s(g107
g49
tp1360
(I800
I300
tp1361
s(g169
g80
tp1362
(I600
I600
tp1363
s(g46
g28
tp1364
(I466
I466
tp1365
s(g146
g83
tp1366
(I600
I600
tp1367
s(g90
g114
tp1368
(I597
I602
tp1369
s(g53
g183
tp1370
(I600
I600
tp1371
s(g98
g21
tp1372
(I600
I600
tp1373
s(g49
g138
tp1374
(I600
I600
tp1375
s(g20
g73
tp1376
(I626
I216
tp1377
s(g37
g209
tp1378
(I599
I599
tp1379
s(g37
g183
tp1380
(I600
I600
tp1381
s(g24
g146
tp1382
(I600
I600
tp1383
s(g37
g32
tp1384
(I600
I600
tp1385
s(g90
g25
tp1386
(I337
I662
tp1387
s(g36
g101
tp1388
(I144
I824
tp1389
s(g202
g29
tp1390
(I0
I1000
tp1391
s(g56
g21
tp1392
(I600
I600
tp1393
s(g93
g77
tp1394
(I596
I596
tp1395
s(g37
g74
tp1396
(I0
I1000
tp1397
s(g73
g17
tp1398
(I1
I996
tp1399
s(g101
g33
tp1400
(I0
I1000
tp1401
s(g279
g93
tp1402
(I1000
I0
tp1403
s(g119
g110
tp1404
(I600
I600
tp1405
s(g40
g53
tp1406
(I600
I600
tp1407
s(g262
g10
tp1408
(I338
I718
tp1409
s(g104
g56
tp1410
(I600
I600
tp1411
s(g56
g74
tp1412
(I0
I1000
tp1413
s(g36
g53
tp1414
(I81
I901
tp1415
s(g20
g74
tp1416
(I0
I1000
tp1417
s(g141
g101
tp1418
(I600
I600
tp1419
s(g40
g83
tp1420
(I600
I600
tp1421
s(g52
g101
tp1422
(I600
I600
tp1423
s(g119
g29
tp1424
(I0
I1000
tp1425
s(g80
g129
tp1426
(I600
I600
tp1427
s(g107
g209
tp1428
(I797
I302
tp1429
s(g32
g25
tp1430
(I600
I600
tp1431
s(g170
g202
tp1432
(I552
I547
tp1433
s(g24
g110
tp1434
(I600
I600
tp1435
s(g40
g209
tp1436
(I977
I32
tp1437
s(g10
g98
tp1438
(I600
I515
tp1439
s(g93
g138
tp1440
(I173
I858
tp1441
s(g104
g21
tp1442
(I600
I600
tp1443
s(g141
g49
tp1444
(I600
I600
tp1445
s(g93
g98
tp1446
(I600
I595
tp1447
s(g104
g90
tp1448
(I595
I110
tp1449
s(g36
g209
tp1450
(I993
I8
tp1451
s(g53
g17
tp1452
(I0
I1000
tp1453
s(g62
g17
tp1454
(I1
I996
tp1455
s(g32
g114
tp1456
(I203
I203
tp1457
s(g9
g36
tp1458
(I450
I450
tp1459
s(g110
g53
tp1460
(I600
I600
tp1461
s(g36
g183
tp1462
(I400
I400
tp1463
s(g77
g25
tp1464
(I600
I600
tp1465
s(g126
g16
tp1466
(I600
I600
tp1467
s(g49
g28
tp1468
(I600
I600
tp1469
s(g45
g56
tp1470
(I600
I600
tp1471
s(g86
g33
tp1472
(I600
I600
tp1473
s(g110
g70
tp1474
(I600
I600
tp1475
s(g45
g36
tp1476
(I267
I602
tp1477
s(g126
g25
tp1478
(I600
I600
tp1479
s(g169
g169
tp1480
(I600
I600
tp1481
s(g21
g183
tp1482
(I600
I600
tp1483
s(g90
g74
tp1484
(I0
I1000
tp1485
s(g93
g53
tp1486
(I540
I635
tp1487
s(g166
g104
tp1488
(I600
I600
tp1489
s(g90
g170
tp1490
(I597
I602
tp1491
s(g36
g111
tp1492
(I104
I864
tp1493
s(g107
g73
tp1494
(I100
I600
tp1495
s(g262
g25
tp1496
(I600
I600
tp1497
s(g146
g183
tp1498
(I600
I600
tp1499
s(g119
g126
tp1500
(I600
I600
tp1501
s(g104
g89
tp1502
(I658
I458
tp1503
s(g169
g21
tp1504
(I600
I600
tp1505
s(g20
g53
tp1506
(I600
I600
tp1507
s(g107
g29
tp1508
(I0
I1000
tp1509
s(g93
g104
tp1510
(I591
I601
tp1511
s(g146
g209
tp1512
(I995
I5
tp1513
s(g16
g90
tp1514
(I597
I537
tp1515
s(g83
g90
tp1516
(I593
I578
tp1517
s(g104
g111
tp1518
(I600
I600
tp1519
s(g32
g53
tp1520
(I600
I600
tp1521
s(g141
g74
tp1522
(I0
I1000
tp1523
s(g101
g21
tp1524
(I600
I600
tp1525
s(g77
g83
tp1526
(I600
I600
tp1527
s(g10
g21
tp1528
(I994
I9
tp1529
s(g32
g32
tp1530
(I600
I600
tp1531
s(g77
g89
tp1532
(I374
I744
tp1533
s(g46
g114
tp1534
(I498
I503
tp1535
s(g63
g74
tp1536
(I0
I1000
tp1537
s(g59
g138
tp1538
(I600
I600
tp1539
s(g63
g183
tp1540
(I600
I600
tp1541
s(g169
g89
tp1542
(I729
I384
tp1543
s(g36
g29
tp1544
(I0
I1000
tp1545
s(g126
g262
tp1546
(I600
I600
tp1547
s(g53
g25
tp1548
(I600
I600
tp1549
s(g46
g90
tp1550
(I532
I532
tp1551
s(g111
g138
tp1552
(I600
I600
tp1553
s(g9
g146
tp1554
(I600
I600
tp1555
s(g279
g49
tp1556
(I244
I189
tp1557
s(g146
g74
tp1558
(I0
I1000
tp1559
s(g146
g29
tp1560
(I0
I1000
tp1561
s(g141
g29
tp1562
(I0
I1000
tp1563
s(g126
g183
tp1564
(I600
I600
tp1565
s(g166
g77
tp1566
(I600
I600
tp1567
s(g21
g74
tp1568
(I0
I1000
tp1569
s(g59
g37
tp1570
(I600
I600
tp1571
s(g126
g24
tp1572
(I600
I600
tp1573
s(g126
g77
tp1574
(I600
I600
tp1575
s(g111
g29
tp1576
(I0
I1000
tp1577
s(g56
g53
tp1578
(I600
I600
tp1579
s(g36
g77
tp1580
(I470
I465
tp1581
s(g80
g170
tp1582
(I500
I500
tp1583
s(g24
g13
tp1584
(I600
I600
tp1585
s(g52
g10
tp1586
(I9
I994
tp1587
s(g45
g45
tp1588
(I600
I600
tp1589
s(g13
g28
tp1590
(I600
I600
tp1591
s(g141
g10
tp1592
(I550
I555
tp1593
s(g104
g32
tp1594
(I600
I600
tp1595
s(g13
g25
tp1596
(I600
I600
tp1597
s(g59
g10
tp1598
(I980
I20
tp1599
s(g9
g183
tp1600
(I600
I600
tp1601
s(g52
g86
tp1602
(I0
I1000
tp1603
s(g279
g37
tp1604
(I204
I199
tp1605
s(g83
g170
tp1606
(I597
I602
tp1607
s(g16
g202
tp1608
(I760
I335
tp1609
s(g53
g170
tp1610
(I203
I203
tp1611
s(g32
g89
tp1612
(I743
I368
tp1613
s(g24
g24
tp1614
(I600
I600
tp1615
s(g36
g10
tp1616
(I998
I3
tp1617
s(g107
g129
tp1618
(I128
I588
tp1619
s(g52
g209
tp1620
(I597
I602
tp1621
s(g24
g37
tp1622
(I600
I600
tp1623
s(g37
g56
tp1624
(I600
I600
tp1625
s(g262
g53
tp1626
(I600
I600
tp1627
s(g59
g49
tp1628
(I600
I600
tp1629
s(g32
g111
tp1630
(I600
I600
tp1631
s(g93
g13
tp1632
(I570
I615
tp1633
s(g13
g17
tp1634
(I0
I1000
tp1635
s(g20
g101
tp1636
(I600
I600
tp1637
s(g45
g209
tp1638
(I995
I5
tp1639
s(g77
g138
tp1640
(I600
I600
tp1641
s(g45
g89
tp1642
(I974
I29
tp1643
s(g111
g101
tp1644
(I600
I600
tp1645
s(g59
g209
tp1646
(I597
I602
tp1647
s(g262
g209
tp1648
(I599
I599
tp1649
s(g93
g111
tp1650
(I540
I635
tp1651
s(g126
g33
tp1652
(I0
I1000
tp1653
s(g80
g25
tp1654
(I600
I600
tp1655
s(g59
g83
tp1656
(I600
I600
tp1657
s(g169
g101
tp1658
(I600
I600
tp1659
s(g146
g90
tp1660
(I595
I110
tp1661
s(g262
g183
tp1662
(I600
I600
tp1663
s(g89
g53
tp1664
(I366
I746
tp1665
s(g279
g63
tp1666
(I204
I199
tp1667
s(g146
g49
tp1668
(I600
I600
tp1669
s(g138
g63
tp1670
(I600
I600
tp1671
s(g279
g141
tp1672
(I204
I199
tp1673
s(g89
g202
tp1674
(I304
I794
tp1675
s(g13
g138
tp1676
(I600
I600
tp1677
s(g9
g49
tp1678
(I600
I600
tp1679
s(g37
g10
tp1680
(I496
I546
tp1681
s(g104
g83
tp1682
(I600
I600
tp1683
s(g20
g129
tp1684
(I600
I600
tp1685
s(g169
g114
tp1686
(I203
I203
tp1687
s(g20
g153
tp1688
(I600
I600
tp1689
s(g89
g101
tp1690
(I401
I716
tp1691
s(g104
g101
tp1692
(I600
I600
tp1693
s(g129
g98
tp1694
(I600
I600
tp1695
s(g279
g52
tp1696
(I216
I196
tp1697
s(g40
g90
tp1698
(I576
I141
tp1699
s(g24
g98
tp1700
(I600
I600
tp1701
s(g279
g110
tp1702
(I204
I199
tp1703
s(g16
g25
tp1704
(I600
I600
tp1705
s(g119
g33
tp1706
(I0
I1000
tp1707
s(g62
g129
tp1708
(I1000
I0
tp1709
s(g279
g62
tp1710
(I996
I1
tp1711
s(g153
g74
tp1712
(I0
I1000
tp1713
s(g90
g73
tp1714
(I100
I600
tp1715
s(g70
g17
tp1716
(I0
I1000
tp1717
s(g62
g32
tp1718
(I105
I870
tp1719
s(g59
g110
tp1720
(I600
I600
tp1721
s(g49
g63
tp1722
(I600
I600
tp1723
s(g9
g20
tp1724
(I600
I600
tp1725
s(g53
g33
tp1726
(I0
I1000
tp1727
s(g262
g29
tp1728
(I0
I1000
tp1729
s(g80
g74
tp1730
(I0
I1000
tp1731
s(g20
g98
tp1732
(I600
I600
tp1733
s(g24
g53
tp1734
(I600
I600
tp1735
s(g138
g89
tp1736
(I921
I96
tp1737
s(g111
g202
tp1738
(I783
I308
tp1739
s(g141
g73
tp1740
(I364
I369
tp1741
s(g93
g202
tp1742
(I3
I998
tp1743
s(g146
g153
tp1744
(I600
I600
tp1745
s(g59
g28
tp1746
(I600
I600
tp1747
s(g49
g89
tp1748
(I479
I639
tp1749
s(g45
g32
tp1750
(I600
I600
tp1751
s(g24
g89
tp1752
(I664
I454
tp1753
s(g59
g56
tp1754
(I600
I600
tp1755
s(g129
g170
tp1756
(I582
I587
tp1757
s(g62
g70
tp1758
(I114
I859
tp1759
s(g110
g202
tp1760
(I314
I784
tp1761
s(g46
g33
tp1762
(I0
I1000
tp1763
s(g62
g28
tp1764
(I400
I400
tp1765
s(g62
g25
tp1766
(I360
I560
tp1767
s(g262
g77
tp1768
(I600
I600
tp1769
s(g129
g183
tp1770
(I600
I600
tp1771
s(g13
g86
tp1772
(I0
I1000
tp1773
s(g9
g33
tp1774
(I0
I1000
tp1775
s(g107
g32
tp1776
(I171
I581
tp1777
s(g93
g110
tp1778
(I602
I587
tp1779
s(g63
g98
tp1780
(I600
I600
tp1781
s(g141
g104
tp1782
(I600
I600
tp1783
s(g129
g21
tp1784
(I600
I600
tp1785
s(g107
g17
tp1786
(I0
I1000
tp1787
s(g77
g209
tp1788
(I597
I602
tp1789
s(g40
g153
tp1790
(I600
I600
tp1791
s(g209
g202
tp1792
(I305
I795
tp1793
s(g77
g111
tp1794
(I600
I600
tp1795
s(g80
g70
tp1796
(I600
I600
tp1797
s(g141
g170
tp1798
(I500
I500
tp1799
s(g107
g53
tp1800
(I123
I593
tp1801
s(g279
g104
tp1802
(I204
I199
tp1803
s(g119
g111
tp1804
(I600
I600
tp1805
s(g110
g29
tp1806
(I0
I1000
tp1807
s(g209
g63
tp1808
(I599
I599
tp1809
s(g262
g33
tp1810
(I0
I1000
tp1811
s(g62
g56
tp1812
(I30
I965
tp1813
s(g24
g28
tp1814
(I600
I600
tp1815
s(g107
g98
tp1816
(I450
I450
tp1817
s(g138
g153
tp1818
(I600
I600
tp1819
s(g9
g62
tp1820
(I450
I450
tp1821
s(g93
g183
tp1822
(I598
I598
tp1823
s(g104
g13
tp1824
(I600
I600
tp1825
s(g111
g183
tp1826
(I600
I600
tp1827
s(g107
g153
tp1828
(I800
I300
tp1829
s(g138
g28
tp1830
(I600
I600
tp1831
s(g93
g209
tp1832
(I597
I602
tp1833
s(g110
g33
tp1834
(I0
I1000
tp1835
s(g119
g104
tp1836
(I600
I600
tp1837
s(g104
g17
tp1838
(I0
I1000
tp1839
s(g77
g74
tp1840
(I0
I1000
tp1841
s(g279
g90
tp1842
(I600
I100
tp1843
s(g40
g52
tp1844
(I600
I600
tp1845
s(g52
g114
tp1846
(I597
I602
tp1847
s(g119
g169
tp1848
(I600
I600
tp1849
s(g62
g146
tp1850
(I6
I991
tp1851
s(g59
g129
tp1852
(I600
I600
tp1853
s(g49
g104
tp1854
(I600
I600
tp1855
s(g25
g86
tp1856
(I0
I1000
tp1857
s(g146
g16
tp1858
(I600
I600
tp1859
s(g36
g56
tp1860
(I39
I959
tp1861
s(g107
g77
tp1862
(I800
I300
tp1863
s(g98
g17
tp1864
(I0
I1000
tp1865
s(g52
g111
tp1866
(I600
I600
tp1867
s(g138
g53
tp1868
(I600
I600
tp1869
s(g52
g25
tp1870
(I600
I600
tp1871
s(g53
g153
tp1872
(I600
I600
tp1873
s(g104
g25
tp1874
(I600
I600
tp1875
s(g169
g17
tp1876
(I0
I1000
tp1877
s(g9
g45
tp1878
(I600
I600
tp1879
s(g80
g33
tp1880
(I0
I1000
tp1881
s(g52
g33
tp1882
(I0
I1000
tp1883
s(g9
g80
tp1884
(I600
I600
tp1885
s(g153
g28
tp1886
(I600
I600
tp1887
s(g32
g90
tp1888
(I597
I567
tp1889
s(g24
g114
tp1890
(I203
I203
tp1891
s(g16
g29
tp1892
(I0
I1000
tp1893
s(g279
g32
tp1894
(I204
I199
tp1895
s(g111
g21
tp1896
(I600
I600
tp1897
s(g166
g89
tp1898
(I374
I744
tp1899
s(g110
g129
tp1900
(I600
I600
tp1901
s(g40
g202
tp1902
(I949
I49
tp1903
s(g32
g21
tp1904
(I600
I600
tp1905
s(g24
g10
tp1906
(I781
I261
tp1907
s(g32
g170
tp1908
(I203
I203
tp1909
s(g93
g37
tp1910
(I602
I587
tp1911
s(g166
g29
tp1912
(I0
I1000
tp1913
s(g169
g25
tp1914
(I600
I600
tp1915
s(g20
g170
tp1916
(I203
I203
tp1917
s(g119
g114
tp1918
(I597
I602
tp1919
s(g209
g25
tp1920
(I596
I601
tp1921
s(g107
g63
tp1922
(I179
I579
tp1923
s(g10
g33
tp1924
(I0
I1000
tp1925
s(g119
g25
tp1926
(I600
I600
tp1927
s(g141
g37
tp1928
(I600
I600
tp1929
s(g119
g20
tp1930
(I600
I600
tp1931
s(g126
g98
tp1932
(I600
I600
tp1933
s(g129
g202
tp1934
(I959
I39
tp1935
s(g107
g111
tp1936
(I138
I583
tp1937
s(g80
g73
tp1938
(I420
I420
tp1939
s(g20
g183
tp1940
(I600
I600
tp1941
s(g40
g77
tp1942
(I600
I600
tp1943
s(g52
g80
tp1944
(I600
I600
tp1945
s(g16
g183
tp1946
(I600
I600
tp1947
s(g89
g114
tp1948
(I557
I562
tp1949
s(g114
g86
tp1950
(I0
I1000
tp1951
s(g20
g114
tp1952
(I203
I203
tp1953
s(g141
g46
tp1954
(I532
I532
tp1955
s(g13
g89
tp1956
(I716
I401
tp1957
s(g104
g53
tp1958
(I600
I600
tp1959
s(g170
g25
tp1960
(I203
I203
tp1961
s(g33
g74
tp1962
(I600
I600
tp1963
s(g62
g10
tp1964
(I1000
I0
tp1965
s(g209
g170
tp1966
(I200
I200
tp1967
s(g80
g49
tp1968
(I600
I600
tp1969
s(g209
g28
tp1970
(I200
I200
tp1971
s(g169
g110
tp1972
(I600
I600
tp1973
s(g90
g28
tp1974
(I596
I596
tp1975
s(g37
g110
tp1976
(I600
I600
tp1977
s(g279
g56
tp1978
(I216
I196
tp1979
s(g141
g202
tp1980
(I549
I549
tp1981
s(g126
g202
tp1982
(I3
I998
tp1983
s(g62
g169
tp1984
(I141
I826
tp1985
s(g49
g114
tp1986
(I597
I602
tp1987
s(g25
g17
tp1988
(I0
I1000
tp1989
s(g36
g33
tp1990
(I0
I1000
tp1991
s(g17
g17
tp1992
(I1000
I0
tp1993
s(g104
g86
tp1994
(I0
I1000
tp1995
s(g63
g114
tp1996
(I206
I206
tp1997
s(g62
g202
tp1998
(I1000
I0
tp1999
s(g49
g25
tp2000
(I600
I600
tp2001
s(g37
g13
tp2002
(I600
I600
tp2003
s(g126
g46
tp2004
(I3
I998
tp2005
s(g129
g29
tp2006
(I0
I1000
tp2007
s(g62
g40
tp2008
(I51
I946
tp2009
s(g49
g16
tp2010
(I600
I600
tp2011
s(g25
g25
tp2012
(I600
I600
tp2013
s(g52
g169
tp2014
(I600
I600
tp2015
s(g29
g86
tp2016
(I600
I600
tp2017
s(g169
g16
tp2018
(I600
I600
tp2019
s(g40
g114
tp2020
(I221
I221
tp2021
s(g83
g83
tp2022
(I600
I600
tp2023
s(g169
g86
tp2024
(I0
I1000
tp2025
s(g262
g56
tp2026
(I600
I600
tp2027
s(g37
g28
tp2028
(I600
I600
tp2029
s(g279
g73
tp2030
(I200
I200
tp2031
s(g37
g33
tp2032
(I0
I1000
tp2033
s(g45
g86
tp2034
(I0
I1000
tp2035
s(g40
g13
tp2036
(I600
I600
tp2037
s(g209
g209
tp2038
(I200
I200
tp2039
s(g262
g21
tp2040
(I600
I600
tp2041
s(g93
g74
tp2042
(I0
I1000
tp2043
s(g93
g114
tp2044
(I597
I602
tp2045
s(g279
g16
tp2046
(I204
I199
tp2047
s(g77
g73
tp2048
(I400
I400
tp2049
s(g153
g10
tp2050
(I513
I588
tp2051
s(g36
g13
tp2052
(I144
I824
tp2053
s(g40
g59
tp2054
(I600
I600
tp2055
s(g49
g74
tp2056
(I0
I1000
tp2057
s(g107
g169
tp2058
(I171
I581
tp2059
s(g46
g73
tp2060
(I0
I1000
tp2061
s(g93
g25
tp2062
(I594
I599
tp2063
s(g32
g153
tp2064
(I600
I600
tp2065
s(g13
g16
tp2066
(I600
I600
tp2067
s(g93
g20
tp2068
(I588
I603
tp2069
s(g36
g49
tp2070
(I514
I479
tp2071
s(g40
g40
tp2072
(I600
I600
tp2073
s(g126
g138
tp2074
(I600
I600
tp2075
s(g141
g13
tp2076
(I600
I600
tp2077
s(g36
g262
tp2078
(I470
I465
tp2079
s(g279
g24
tp2080
(I204
I199
tp2081
s(g36
g70
tp2082
(I117
I857
tp2083
s(g52
g183
tp2084
(I600
I600
tp2085
s(g110
g16
tp2086
(I600
I600
tp2087
s(g36
g28
tp2088
(I400
I400
tp2089
s(g126
g29
tp2090
(I0
I1000
tp2091
s(g77
g153
tp2092
(I600
I600
tp2093
s(g80
g10
tp2094
(I540
I540
tp2095
s(g37
g20
tp2096
(I600
I600
tp2097
s(g46
g104
tp2098
(I367
I697
tp2099
s(g56
g56
tp2100
(I600
I600
tp2101
s(g59
g111
tp2102
(I600
I600
tp2103
s(g126
g93
tp2104
(I12
I992
tp2105
s(g21
g28
tp2106
(I600
I600
tp2107
s(g90
g33
tp2108
(I0
I1000
tp2109
s(g141
g111
tp2110
(I600
I600
tp2111
s(g45
g183
tp2112
(I600
I600
tp2113
s(g209
g33
tp2114
(I0
I1000
tp2115
s(g107
g279
tp2116
(I100
I600
tp2117
s(g166
g114
tp2118
(I592
I597
tp2119
s(g13
g10
tp2120
(I735
I330
tp2121
s(g59
g13
tp2122
(I600
I600
tp2123
s(g32
g29
tp2124
(I0
I1000
tp2125
s(g32
g16
tp2126
(I600
I600
tp2127
s(g169
g37
tp2128
(I600
I600
tp2129
s(g10
g10
tp2130
(I564
I564
tp2131
s(g37
g49
tp2132
(I600
I600
tp2133
s(g77
g56
tp2134
(I600
I600
tp2135
s(g62
g59
tp2136
(I11
I986
tp2137
s(g126
g21
tp2138
(I600
I600
tp2139
s(g63
g86
tp2140
(I0
I1000
tp2141
s(g138
g170
tp2142
(I243
I243
tp2143
s(g110
g74
tp2144
(I0
I1000
tp2145
s(g119
g56
tp2146
(I600
I600
tp2147
s(g49
g170
tp2148
(I597
I602
tp2149
s(g10
g28
tp2150
(I564
I564
tp2151
s(g166
g170
tp2152
(I592
I597
tp2153
s(g89
g25
tp2154
(I494
I624
tp2155
s(g45
g93
tp2156
(I595
I600
tp2157
s(g52
g37
tp2158
(I600
I600
tp2159
s(g126
g40
tp2160
(I600
I600
tp2161
s(g63
g21
tp2162
(I600
I600
tp2163
s(g202
g17
tp2164
(I0
I1000
tp2165
s(g9
g56
tp2166
(I600
I600
tp2167
s(g45
g21
tp2168
(I600
I600
tp2169
s(g262
g166
tp2170
(I600
I600
tp2171
s(g138
g86
tp2172
(I0
I1000
tp2173
s(g126
g169
tp2174
(I600
I600
tp2175
s(g111
g74
tp2176
(I0
I1000
tp2177
s(g59
g33
tp2178
(I0
I1000
tp2179
s(g45
g53
tp2180
(I600
I600
tp2181
s(g53
g10
tp2182
(I811
I231
tp2183
s(g169
g209
tp2184
(I619
I569
tp2185
s(g80
g28
tp2186
(I600
I600
tp2187
s(g101
g153
tp2188
(I600
I600
tp2189
s(g107
g166
tp2190
(I800
I300
tp2191
s(g52
g21
tp2192
(I600
I600
tp2193
s(g169
g183
tp2194
(I600
I600
tp2195
s(g16
g74
tp2196
(I0
I1000
tp2197
s(g146
g21
tp2198
(I600
I600
tp2199
s(g40
g101
tp2200
(I600
I600
tp2201
s(g107
g141
tp2202
(I503
I498
tp2203
s(g83
g74
tp2204
(I0
I1000
tp2205
s(g16
g33
tp2206
(I0
I1000
tp2207
s(g166
g98
tp2208
(I600
I600
tp2209
s(g9
g110
tp2210
(I600
I600
tp2211
s(g24
g83
tp2212
(I600
I600
tp2213
s(g52
g74
tp2214
(I0
I1000
tp2215
s(g36
g62
tp2216
(I0
I1000
tp2217
s(g36
g21
tp2218
(I998
I3
tp2219
s(g107
g107
tp2220
(I400
I400
tp2221
s(g46
g146
tp2222
(I9
I989
tp2223
s(g262
g13
tp2224
(I600
I600
tp2225
s(g53
g28
tp2226
(I600
I600
tp2227
s(g104
g183
tp2228
(I600
I600
tp2229
s(g141
g153
tp2230
(I600
I600
tp2231
s(g119
g83
tp2232
(I600
I600
tp2233
s(g20
g25
tp2234
(I600
I600
tp2235
s(g169
g129
tp2236
(I600
I600
tp2237
s(g110
g25
tp2238
(I600
I600
tp2239
s(g9
g111
tp2240
(I600
I600
tp2241
s(g59
g53
tp2242
(I600
I600
tp2243
s(g9
g126
tp2244
(I600
I600
tp2245
s(g80
g20
tp2246
(I600
I600
tp2247
s(g24
g33
tp2248
(I0
I1000
tp2249
s(g262
g70
tp2250
(I600
I600
tp2251
s(g83
g16
tp2252
(I600
I600
tp2253
s(g209
g74
tp2254
(I0
I1000
tp2255
s(g17
g29
tp2256
(I1000
I0
tp2257
s(g36
g153
tp2258
(I560
I360
tp2259
s(g262
g28
tp2260
(I600
I600
tp2261
s(g114
g17
tp2262
(I1
I996
tp2263
s(g126
g32
tp2264
(I600
I600
tp2265
s(g36
g36
tp2266
(I400
I400
tp2267
s(g153
g33
tp2268
(I0
I1000
tp2269
s(g70
g89
tp2270
(I730
I385
tp2271
s(g83
g202
tp2272
(I354
I744
tp2273
s(g70
g16
tp2274
(I600
I600
tp2275
s(g126
g70
tp2276
(I600
I600
tp2277
s(g49
g73
tp2278
(I524
I444
tp2279
s(g46
g83
tp2280
(I341
I721
tp2281
s(g37
g21
tp2282
(I600
I600
tp2283
s(g13
g98
tp2284
(I600
I600
tp2285
s(g80
g13
tp2286
(I600
I600
tp2287
s(g70
g86
tp2288
(I0
I1000
tp2289
s(g89
g86
tp2290
(I0
I1000
tp2291
s(g45
g166
tp2292
(I600
I600
tp2293
s(g119
g119
tp2294
(I600
I600
tp2295
s(g114
g25
tp2296
(I203
I203
tp2297
s(g262
g46
tp2298
(I367
I697
tp2299
s(g169
g77
tp2300
(I600
I600
tp2301
s(g262
g37
tp2302
(I600
I600
tp2303
s(g13
g20
tp2304
(I600
I600
tp2305
s(g119
g17
tp2306
(I0
I1000
tp2307
s(g37
g80
tp2308
(I600
I600
tp2309
s(g53
g86
tp2310
(I0
I1000
tp2311
s(g90
g10
tp2312
(I996
I6
tp2313
s(g37
g70
tp2314
(I600
I600
tp2315
s(g119
g32
tp2316
(I600
I600
tp2317
s(g209
g10
tp2318
(I35
I975
tp2319
s(g83
g129
tp2320
(I600
I600
tp2321
s(g20
g20
tp2322
(I600
I600
tp2323
s(g166
g21
tp2324
(I600
I600
tp2325
s(g126
g146
tp2326
(I600
I600
tp2327
s(g111
g33
tp2328
(I0
I1000
tp2329
s(g40
g10
tp2330
(I955
I45
tp2331
s(g138
g73
tp2332
(I0
I1000
tp2333
s(g93
g33
tp2334
(I0
I1000
tp2335
s(g53
g73
tp2336
(I848
I88
tp2337
s(g279
g80
tp2338
(I204
I199
tp2339
s(g24
g138
tp2340
(I600
I600
tp2341
s(g169
g32
tp2342
(I600
I600
tp2343
s(g279
g114
tp2344
(I200
I200
tp2345
s(g126
g166
tp2346
(I600
I600
tp2347
s(g28
g74
tp2348
(I0
I1000
tp2349
s(g16
g21
tp2350
(I600
I600
tp2351
s(g209
g90
tp2352
(I602
I597
tp2353
s(g83
g63
tp2354
(I600
I600
tp2355
s(g80
g63
tp2356
(I600
I600
tp2357
s(g279
g25
tp2358
(I204
I199
tp2359
s(g114
g28
tp2360
(I200
I200
tp2361
s(g46
g32
tp2362
(I245
I815
tp2363
s(g119
g138
tp2364
(I600
I600
tp2365
s(g166
g46
tp2366
(I422
I627
tp2367
s(g279
g20
tp2368
(I204
I199
tp2369
s(g70
g183
tp2370
(I600
I600
tp2371
s(g262
g170
tp2372
(I500
I500
tp2373
s(g73
g73
tp2374
(I200
I200
tp2375
s(g110
g83
tp2376
(I600
I600
tp2377
s(g40
g70
tp2378
(I600
I600
tp2379
s(g138
g56
tp2380
(I600
I600
tp2381
s(g83
g209
tp2382
(I597
I602
tp2383
s(g138
g29
tp2384
(I0
I1000
tp2385
s(g9
g74
tp2386
(I0
I1000
tp2387
s(g53
g53
tp2388
(I600
I600
tp2389
s(g56
g17
tp2390
(I0
I1000
tp2391
s(g9
g77
tp2392
(I600
I600
tp2393
s(g98
g202
tp2394
(I978
I23
tp2395
s(g107
g33
tp2396
(I0
I1000
tp2397
s(g166
g20
tp2398
(I600
I600
tp2399
s(g40
g25
tp2400
(I600
I600
tp2401
s(g77
g70
tp2402
(I600
I600
tp2403
s(g110
g49
tp2404
(I600
I600
tp2405
s(g279
g170
tp2406
(I200
I200
tp2407
s(g46
g138
tp2408
(I78
I928
tp2409
s(g107
g16
tp2410
(I135
I590
tp2411
s(g279
g74
tp2412
(I0
I1000
tp2413
s(g52
g129
tp2414
(I600
I600
tp2415
s(g70
g114
tp2416
(I239
I239
tp2417
s(g101
g90
tp2418
(I609
I144
tp2419
s(g279
g101
tp2420
(I204
I199
tp2421
s(g129
g25
tp2422
(I600
I600
tp2423
s(g169
g83
tp2424
(I600
I600
tp2425
s(g45
g104
tp2426
(I600
I600
tp2427
s(g262
g17
tp2428
(I0
I1000
tp2429
s(g49
g29
tp2430
(I0
I1000
tp2431
s(g126
g59
tp2432
(I600
I600
tp2433
s(g70
g10
tp2434
(I757
I302
tp2435
s(g32
g98
tp2436
(I600
I600
tp2437
s(g56
g90
tp2438
(I582
I132
tp2439
s(g107
g59
tp2440
(I114
I594
tp2441
s(g111
g25
tp2442
(I600
I600
tp2443
s(g62
g98
tp2444
(I600
I265
tp2445
s(g101
g101
tp2446
(I600
I600
tp2447
s(g83
g73
tp2448
(I646
I236
tp2449
s(g101
g114
tp2450
(I203
I203
tp2451
s(g24
g129
tp2452
(I600
I600
tp2453
s(g126
g74
tp2454
(I0
I1000
tp2455
s(g59
g20
tp2456
(I600
I600
tp2457
s(g146
g114
tp2458
(I203
I203
tp2459
s(g110
g32
tp2460
(I600
I600
tp2461
s(g110
g101
tp2462
(I600
I600
tp2463
s(g45
g262
tp2464
(I600
I600
tp2465
s(g89
g16
tp2466
(I385
I730
tp2467
s(g93
g93
tp2468
(I598
I598
tp2469
s(g119
g209
tp2470
(I597
I602
tp2471
s(g80
g98
tp2472
(I600
I600
tp2473
s(g89
g29
tp2474
(I0
I1000
tp2475
s(g138
g10
tp2476
(I892
I117
tp2477
s(g166
g70
tp2478
(I600
I600
tp2479
s(g98
g33
tp2480
(I0
I1000
tp2481
s(g93
g21
tp2482
(I992
I12
tp2483
s(g119
g129
tp2484
(I600
I600
tp2485
s(g45
g59
tp2486
(I600
I600
tp2487
s(g80
g202
tp2488
(I434
I664
tp2489
s(g209
g73
tp2490
(I200
I200
tp2491
s(g28
g33
tp2492
(I0
I1000
tp2493
s(g63
g63
tp2494
(I600
I600
tp2495
s(g110
g138
tp2496
(I600
I600
tp2497
s(g166
g138
tp2498
(I600
I600
tp2499
s(g9
g29
tp2500
(I0
I1000
tp2501
s(g20
g28
tp2502
(I600
I600
tp2503
s(g62
g49
tp2504
(I516
I476
tp2505
s(g62
g86
tp2506
(I0
I1000
tp2507
s(g209
g16
tp2508
(I563
I623
tp2509
s(g9
g46
tp2510
(I532
I532
tp2511
s(g183
g86
tp2512
(I0
I1000
tp2513
s(g170
g21
tp2514
(I602
I597
tp2515
s(g209
g29
tp2516
(I0
I1000
tp2517
s(g169
g104
tp2518
(I600
I600
tp2519
s(g24
g16
tp2520
(I600
I600
tp2521
s(g166
g80
tp2522
(I600
I600
tp2523
s(g73
g33
tp2524
(I0
I1000
tp2525
s(g59
g202
tp2526
(I984
I14
tp2527
s(g107
g36
tp2528
(I400
I400
tp2529
s(g279
g126
tp2530
(I1000
I0
tp2531
s(g119
g28
tp2532
(I600
I600
tp2533
s(g80
g138
tp2534
(I600
I600
tp2535
s(g49
g32
tp2536
(I600
I600
tp2537
s(g153
g86
tp2538
(I0
I1000
tp2539
s(g169
g138
tp2540
(I600
I600
tp2541
s(g138
g98
tp2542
(I600
I600
tp2543
s(g46
g101
tp2544
(I280
I775
tp2545
s(g62
g141
tp2546
(I450
I450
tp2547
s(g101
g98
tp2548
(I600
I600
tp2549
s(g59
g46
tp2550
(I984
I14
tp2551
s(g40
g170
tp2552
(I221
I221
tp2553
s(g83
g29
tp2554
(I0
I1000
tp2555
s(g52
g146
tp2556
(I600
I600
tp2557
s(g24
g262
tp2558
(I600
I600
tp2559
s(g77
g101
tp2560
(I600
I600
tp2561
s(g141
g146
tp2562
(I600
I600
tp2563
s(g104
g10
tp2564
(I608
I483
tp2565
s(g110
g110
tp2566
(I600
I600
tp2567
s(g62
g46
tp2568
(I1000
I0
tp2569
s(g141
g141
tp2570
(I600
I600
tp2571
s(g166
g146
tp2572
(I600
I600
tp2573
s(g45
g114
tp2574
(I401
I401
tp2575
s(g126
g153
tp2576
(I600
I600
tp2577
s(g146
g56
tp2578
(I600
I600
tp2579
s(g49
g98
tp2580
(I600
I600
tp2581
s(g146
g28
tp2582
(I600
I600
tp2583
s(g37
g77
tp2584
(I600
I600
tp2585
s(g169
g10
tp2586
(I735
I330
tp2587
s(g9
g53
tp2588
(I600
I600
tp2589
s(g104
g98
tp2590
(I600
I600
tp2591
s(g110
g46
tp2592
(I400
I665
tp2593
s(g36
g17
tp2594
(I0
I1000
tp2595
s(g83
g114
tp2596
(I597
I602
tp2597
s(g141
g86
tp2598
(I0
I1000
tp2599
s(g80
g111
tp2600
(I600
I600
tp2601
s(g9
g9
tp2602
(I600
I600
tp2603
s(g111
g170
tp2604
(I230
I230
tp2605
s(g45
g111
tp2606
(I600
I600
tp2607
s(g141
g83
tp2608
(I600
I600
tp2609
s(g40
g56
tp2610
(I600
I600
tp2611
s(g93
g80
tp2612
(I595
I595
tp2613
s(g52
g49
tp2614
(I600
I600
tp2615
s(g166
g166
tp2616
(I600
I600
tp2617
s(g37
g146
tp2618
(I600
I600
tp2619
s(g62
g52
tp2620
(I989
I9
tp2621
s(g126
g170
tp2622
(I597
I602
tp2623
s(g279
g9
tp2624
(I204
I199
tp2625
s(g36
g83
tp2626
(I210
I760
tp2627
s(g37
g63
tp2628
(I600
I600
tp2629
s(g262
g129
tp2630
(I600
I600
tp2631
s(g146
g53
tp2632
(I600
I600
tp2633
s(g146
g33
tp2634
(I0
I1000
tp2635
s(g62
g62
tp2636
(I400
I400
tp2637
s(g37
g17
tp2638
(I0
I1000
tp2639
s(g169
g63
tp2640
(I600
I600
tp2641
s(g111
g98
tp2642
(I600
I600
tp2643
s(g52
g46
tp2644
(I3
I998
tp2645
s(g126
g104
tp2646
(I600
I600
tp2647
s(g170
g29
tp2648
(I0
I1000
tp2649
s(g153
g153
tp2650
(I600
I600
tp2651
s(g107
g146
tp2652
(I107
I597
tp2653
s(g279
g89
tp2654
(I1000
I0
tp2655
s(g9
g21
tp2656
(I600
I600
tp2657
s(g166
g32
tp2658
(I600
I600
tp2659
s(g90
g98
tp2660
(I600
I595
tp2661
s(g36
g52
tp2662
(I998
I3
tp2663
s(g70
g129
tp2664
(I600
I600
tp2665
s(g52
g110
tp2666
(I600
I600
tp2667
s(g119
g49
tp2668
(I600
I600
tp2669
s(g110
g20
tp2670
(I600
I600
tp2671
s(g32
g17
tp2672
(I0
I1000
tp2673
s(g36
g110
tp2674
(I482
I452
tp2675
s(g40
g33
tp2676
(I0
I1000
tp2677
s(g110
g153
tp2678
(I600
I600
tp2679
s(g141
g28
tp2680
(I600
I600
tp2681
s(g62
g74
tp2682
(I0
I1000
tp2683
s(g9
g104
tp2684
(I600
I600
tp2685
s(g52
g28
tp2686
(I600
I600
tp2687
s(g202
g202
tp2688
(I500
I500
tp2689
s(g129
g73
tp2690
(I0
I1000
tp2691
s(g37
g83
tp2692
(I600
I600
tp2693
s(g46
g63
tp2694
(I296
I751
tp2695
s(g169
g46
tp2696
(I801
I261
tp2697
s(g166
g129
tp2698
(I600
I600
tp2699
s(g56
g89
tp2700
(I959
I39
tp2701
s(g77
g13
tp2702
(I600
I600
tp2703
s(g153
g183
tp2704
(I600
I600
tp2705
s(g138
g90
tp2706
(I574
I144
tp2707
s(g40
g24
tp2708
(I600
I600
tp2709
s(g90
g17
tp2710
(I0
I1000
tp2711
s(g93
g70
tp2712
(I561
I621
tp2713
s(g279
g111
tp2714
(I240
I190
tp2715
s(g83
g98
tp2716
(I600
I600
tp2717
s(g73
g28
tp2718
(I200
I200
tp2719
s(g141
g110
tp2720
(I600
I600
tp2721
s(g62
g138
tp2722
(I1000
I0
tp2723
s(g107
g21
tp2724
(I503
I498
tp2725
s(g45
g169
tp2726
(I600
I600
tp2727
s(g119
g46
tp2728
(I3
I998
tp2729
s(g80
g46
tp2730
(I471
I571
tp2731
s(g101
g170
tp2732
(I203
I203
tp2733
s(g119
g13
tp2734
(I600
I600
tp2735
s(g25
g183
tp2736
(I600
I600
tp2737
s(g111
g16
tp2738
(I600
I600
tp2739
s(g59
g169
tp2740
(I600
I600
tp2741
s(g80
g153
tp2742
(I600
I600
tp2743
s(g20
g10
tp2744
(I592
I507
tp2745
s(g141
g138
tp2746
(I600
I600
tp2747
s(g138
g20
tp2748
(I600
I600
tp2749
s(g46
g53
tp2750
(I244
I814
tp2751
s(g111
g63
tp2752
(I600
I600
tp2753
s(g13
g129
tp2754
(I600
I600
tp2755
s(g70
g83
tp2756
(I600
I600
tp2757
s(g62
g262
tp2758
(I468
I463
tp2759
s(g104
g16
tp2760
(I600
I600
tp2761
s(g89
g89
tp2762
(I520
I520
tp2763
s(g141
g20
tp2764
(I600
I600
tp2765
s(g33
g33
tp2766
(I0
I1000
tp2767
s(g104
g29
tp2768
(I0
I1000
tp2769
s(g52
g20
tp2770
(I600
I600
tp2771
s(g77
g32
tp2772
(I600
I600
tp2773
s(g119
g36
tp2774
(I3
I998
tp2775
s(g36
g138
tp2776
(I79
I909
tp2777
s(g104
g20
tp2778
(I600
I600
tp2779
s(g9
g129
tp2780
(I600
I600
tp2781
s(g45
g170
tp2782
(I401
I401
tp2783
s(g77
g17
tp2784
(I0
I1000
tp2785
s(g98
g28
tp2786
(I600
I600
tp2787
s(g10
g183
tp2788
(I564
I564
tp2789
s(g59
g73
tp2790
(I978
I13
tp2791
s(g119
g80
tp2792
(I600
I600
tp2793
s(g52
g166
tp2794
(I600
I600
tp2795
s(g9
g209
tp2796
(I599
I599
tp2797
s(g53
g114
tp2798
(I203
I203
tp2799
s(g63
g25
tp2800
(I600
I600
tp2801
s(g63
g10
tp2802
(I666
I411
tp2803
s(g46
g202
tp2804
(I860
I205
tp2805
s(g93
g56
tp2806
(I33
I968
tp2807
s(g52
g170
tp2808
(I597
I602
tp2809
s(g146
g13
tp2810
(I600
I600
tp2811
s(g62
g90
tp2812
(I452
I447
tp2813
s(g98
g74
tp2814
(I0
I1000
tp2815
s(g52
g13
tp2816
(I600
I600
tp2817
s(g114
g202
tp2818
(I552
I547
tp2819
s(g202
g33
tp2820
(I0
I1000
tp2821
s(g110
g63
tp2822
(I600
I600
tp2823
s(g126
g141
tp2824
(I600
I600
tp2825
s(g25
g28
tp2826
(I600
I600
tp2827
s(g70
g33
tp2828
(I0
I1000
tp2829
s(g45
g25
tp2830
(I600
I600
tp2831
s(g59
g262
tp2832
(I600
I600
tp2833
s(g126
g63
tp2834
(I600
I600
tp2835
s(g56
g153
tp2836
(I600
I600
tp2837
s(g24
g80
tp2838
(I600
I600
tp2839
s(g21
g21
tp2840
(I600
I600
tp2841
s(g49
g53
tp2842
(I600
I600
tp2843
s(g46
g98
tp2844
(I32
I967
tp2845
s(g101
g28
tp2846
(I600
I600
tp2847
s(g262
g101
tp2848
(I600
I600
tp2849
s(g209
g20
tp2850
(I539
I639
tp2851
s(g101
g16
tp2852
(I600
I600
tp2853
s(g80
g86
tp2854
(I0
I1000
tp2855
s(g37
g101
tp2856
(I600
I600
tp2857
s(g9
g98
tp2858
(I600
I600
tp2859
s(g29
g33
tp2860
(I600
I600
tp2861
s(g169
g70
tp2862
(I600
I600
tp2863
s(g138
g202
tp2864
(I926
I86
tp2865
s(g107
g37
tp2866
(I800
I300
tp2867
s(g146
g25
tp2868
(I600
I600
tp2869
s(g59
g183
tp2870
(I600
I600
tp2871
s(g126
g114
tp2872
(I597
I602
tp2873
s(g53
g74
tp2874
(I0
I1000
tp2875
s(g37
g138
tp2876
(I600
I600
tp2877
s(g49
g202
tp2878
(I419
I679
tp2879
s(g279
g166
tp2880
(I204
I199
tp2881
s(g59
g77
tp2882
(I600
I600
tp2883
s(g9
g262
tp2884
(I600
I600
tp2885
s(g40
g169
tp2886
(I600
I600
tp2887
s(g36
g90
tp2888
(I450
I450
tp2889
s(g24
g74
tp2890
(I0
I1000
tp2891
s(g119
g62
tp2892
(I0
I1000
tp2893
s(g141
g114
tp2894
(I500
I500
tp2895
s(g279
g10
tp2896
(I1000
I0
tp2897
s(g104
g114
tp2898
(I203
I203
tp2899
s(g279
g146
tp2900
(I204
I199
tp2901
s(g83
g153
tp2902
(I600
I600
tp2903
s(g119
g170
tp2904
(I597
I602
tp2905
s(g183
g183
tp2906
(I600
I600
tp2907
s(g13
g74
tp2908
(I0
I1000
tp2909
s(g111
g20
tp2910
(I600
I600
tp2911
s(g73
g202
tp2912
(I1000
I0
tp2913
s(g119
g59
tp2914
(I600
I600
tp2915
s(g141
g63
tp2916
(I600
I600
tp2917
s(g36
g114
tp2918
(I450
I450
tp2919
s(g56
g183
tp2920
(I600
I600
tp2921
s(g40
g262
tp2922
(I600
I600
tp2923
s(g9
g93
tp2924
(I597
I597
tp2925
s(g24
g170
tp2926
(I203
I203
tp2927
s(g59
g146
tp2928
(I600
I600
tp2929
s(g93
g83
tp2930
(I572
I612
tp2931
s(g56
g209
tp2932
(I981
I26
tp2933
s(g20
g33
tp2934
(I0
I1000
tp2935
s(g70
g138
tp2936
(I600
I600
tp2937
s(g93
g46
tp2938
(I3
I998
tp2939
s(g83
g33
tp2940
(I0
I1000
tp2941
s(g262
g111
tp2942
(I600
I600
tp2943
s(g104
g28
tp2944
(I600
I600
tp2945
s(g36
g25
tp2946
(I360
I560
tp2947
s(g114
g33
tp2948
(I0
I1000
tp2949
s(g170
g17
tp2950
(I1
I996
tp2951
s(g36
g63
tp2952
(I162
I802
tp2953
s(g70
g29
tp2954
(I0
I1000
tp2955
s(g110
g89
tp2956
(I374
I744
tp2957
s(g10
g29
tp2958
(I0
I1000
tp2959
s(g62
g170
tp2960
(I450
I450
tp2961
s(g16
g114
tp2962
(I203
I203
tp2963
s(g279
g183
tp2964
(I200
I200
tp2965
s(g101
g183
tp2966
(I600
I600
tp2967
s(g45
g52
tp2968
(I600
I600
tp2969
s(g40
g46
tp2970
(I949
I49
tp2971
s(g129
g16
tp2972
(I600
I600
tp2973
s(g138
g25
tp2974
(I600
I600
tp2975
s(g93
g28
tp2976
(I598
I598
tp2977
s(g114
g153
tp2978
(I602
I597
tp2979
s(g114
g73
tp2980
(I200
I200
tp2981
s(g9
g16
tp2982
(I600
I600
tp2983
s(g111
g28
tp2984
(I600
I600
tp2985
s(g13
g209
tp2986
(I617
I572
tp2987
s(g104
g33
tp2988
(I0
I1000
tp2989
s(g166
g74
tp2990
(I0
I1000
tp2991
s(g107
g138
tp2992
(I128
I588
tp2993
s(g119
g279
tp2994
(I0
I1000
tp2995
s(g90
g21
tp2996
(I996
I6
tp2997
s(g25
g33
tp2998
(I0
I1000
tp2999
s(g49
g13
tp3000
(I600
I600
tp3001
s(g104
g209
tp3002
(I603
I593
tp3003
s(g70
g111
tp3004
(I600
I600
tp3005
s(g40
g21
tp3006
(I600
I600
tp3007
s(g49
g183
tp3008
(I600
I600
tp3009
s(g262
g138
tp3010
(I600
I600
tp3011
s(g107
g9
tp3012
(I503
I498
tp3013
s(g40
g141
tp3014
(I600
I600
tp3015
s(g73
g25
tp3016
(I316
I451
tp3017
s(g46
g25
tp3018
(I434
I599
tp3019
s(g40
g63
tp3020
(I600
I600
tp3021
s(g279
g29
tp3022
(I0
I1000
tp3023
s(g104
g153
tp3024
(I600
I600
tp3025
s(g141
g98
tp3026
(I600
I600
tp3027
s(g169
g33
tp3028
(I0
I1000
tp3029
s(g262
g98
tp3030
(I600
I600
tp3031
s(g89
g21
tp3032
(I998
I3
tp3033
s(g16
g16
tp3034
(I600
I600
tp3035
s(g114
g183
tp3036
(I200
I200
tp3037
s(g279
g169
tp3038
(I204
I199
tp3039
s(g114
g170
tp3040
(I200
I200
tp3041
s(g59
g101
tp3042
(I600
I600
tp3043
s(g24
g73
tp3044
(I907
I52
tp3045
s(g40
g111
tp3046
(I600
I600
tp3047
s(g9
g86
tp3048
(I0
I1000
tp3049
s(g77
g21
tp3050
(I600
I600
tp3051
s(g126
g56
tp3052
(I600
I600
tp3053
s(g111
g83
tp3054
(I600
I600
tp3055
s(g93
g166
tp3056
(I593
I593
tp3057
s(g59
g74
tp3058
(I0
I1000
tp3059
s(g169
g153
tp3060
(I600
I600
tp3061
s(g166
g56
tp3062
(I600
I600
tp3063
s(g52
g56
tp3064
(I600
I600
tp3065
s(g45
g29
tp3066
(I0
I1000
tp3067
s(g40
g20
tp3068
(I600
I600
tp3069
s(g90
g29
tp3070
(I0
I1000
tp3071
s(g279
g40
tp3072
(I240
I190
tp3073
s(g119
g24
tp3074
(I600
I600
tp3075
s(g104
g129
tp3076
(I600
I600
tp3077
s(g24
g77
tp3078
(I600
I600
tp3079
s(g119
g37
tp3080
(I600
I600
tp3081
s(g89
g28
tp3082
(I520
I520
tp3083
s(g56
g101
tp3084
(I600
I600
tp3085
s(g63
g29
tp3086
(I0
I1000
tp3087
s(g209
g86
tp3088
(I0
I1000
tp3089
s(g166
g90
tp3090
(I592
I597
tp3091
s(g46
g74
tp3092
(I0
I1000
tp3093
s(g52
g141
tp3094
(I600
I600
tp3095
s(g110
g13
tp3096
(I600
I600
tp3097
s(g9
g25
tp3098
(I600
I600
tp3099
s(g32
g70
tp3100
(I600
I600
tp3101
s(g16
g28
tp3102
(I600
I600
tp3103
s(g98
g98
tp3104
(I600
I600
tp3105
s(g262
g86
tp3106
(I0
I1000
tp3107
s(g169
g56
tp3108
(I600
I600
tp3109
s(g9
g114
tp3110
(I500
I500
tp3111
s(g107
g83
tp3112
(I800
I300
tp3113
s(g13
g202
tp3114
(I751
I346
tp3115
s(g129
g33
tp3116
(I0
I1000
tp3117
s(g170
g153
tp3118
(I602
I597
tp3119
s(g169
g49
tp3120
(I600
I600
tp3121
s(g62
g21
tp3122
(I1000
I0
tp3123
s(g80
g146
tp3124
(I600
I600
tp3125
s(g32
g13
tp3126
(I600
I600
tp3127
s(g169
g262
tp3128
(I600
I600
tp3129
s(g166
g111
tp3130
(I600
I600
tp3131
s(g262
g63
tp3132
(I600
I600
tp3133
s(g169
g90
tp3134
(I606
I141
tp3135
s(g202
g183
tp3136
(I500
I500
tp3137
s(g52
g89
tp3138
(I3
I998
tp3139
s(g70
g209
tp3140
(I623
I563
tp3141
s(g141
g89
tp3142
(I559
I559
tp3143
s(g89
g20
tp3144
(I456
I661
tp3145
s(g279
g17
tp3146
(I1
I996
tp3147
s(g126
g89
tp3148
(I3
I998
tp3149
s(g62
g209
tp3150
(I989
I9
tp3151
s(g83
g183
tp3152
(I600
I600
tp3153
s(g49
g101
tp3154
(I600
I600
tp3155
s(g70
g70
tp3156
(I600
I600
tp3157
s(g183
g74
tp3158
(I0
I1000
tp3159
s(g45
g24
tp3160
(I600
I600
tp3161
s(g146
g138
tp3162
(I600
I600
tp3163
s(g52
g83
tp3164
(I600
I600
tp3165
s(g46
g70
tp3166
(I268
I788
tp3167
s(g45
g90
tp3168
(I595
I600
tp3169
s(g77
g20
tp3170
(I600
I600
tp3171
s(g166
g63
tp3172
(I600
I600
tp3173
s(g89
g17
tp3174
(I0
I1000
tp3175
s(g126
g129
tp3176
(I600
I600
tp3177
s(g110
g146
tp3178
(I600
I600
tp3179
s(g52
g262
tp3180
(I600
I600
tp3181
s(g9
g169
tp3182
(I600
I600
tp3183
s(g63
g73
tp3184
(I660
I195
tp3185
s(g262
g20
tp3186
(I600
I600
tp3187
s(g77
g98
tp3188
(I600
I600
tp3189
s(g13
g83
tp3190
(I600
I600
tp3191
s(g46
g13
tp3192
(I280
I775
tp3193
s(g56
g98
tp3194
(I600
I600
tp3195
s(g32
g63
tp3196
(I600
I600
tp3197
s(g70
g101
tp3198
(I600
I600
tp3199
s(g45
g73
tp3200
(I100
I600
tp3201
s(g104
g77
tp3202
(I600
I600
tp3203
s(g279
g98
tp3204
(I600
I100
tp3205
s(g70
g56
tp3206
(I600
I600
tp3207
s(g62
g16
tp3208
(I114
I859
tp3209
s(g119
g89
tp3210
(I3
I998
tp3211
s(g40
g138
tp3212
(I600
I600
tp3213
s(g110
g80
tp3214
(I600
I600
tp3215
s(g169
g146
tp3216
(I600
I600
tp3217
s(g129
g28
tp3218
(I600
I600
tp3219
s(g107
g56
tp3220
(I114
I594
tp3221
s(g77
g63
tp3222
(I600
I600
tp3223
s(g169
g141
tp3224
(I600
I600
tp3225
s(g45
g17
tp3226
(I0
I1000
tp3227
s(g107
g114
tp3228
(I500
I500
tp3229
s(g146
g73
tp3230
(I983
I8
tp3231
s(g21
g33
tp3232
(I0
I1000
tp3233
s(g110
g77
tp3234
(I600
I600
tp3235
s(g279
g53
tp3236
(I204
I199
tp3237
s(g153
g21
tp3238
(I600
I600
tp3239
s(g138
g209
tp3240
(I981
I26
tp3241
s(g52
g17
tp3242
(I0
I1000
tp3243
s(g93
g24
tp3244
(I558
I623
tp3245
s(g49
g33
tp3246
(I0
I1000
tp3247
s(g52
g32
tp3248
(I600
I600
tp3249
s(g13
g53
tp3250
(I600
I600
tp3251
s(g279
g83
tp3252
(I208
I198
tp3253
s(g13
g63
tp3254
(I600
I600
tp3255
s(g77
g114
tp3256
(I597
I602
tp3257
s(g279
g46
tp3258
(I1000
I0
tp3259
s(g89
g63
tp3260
(I421
I696
tp3261
s(g141
g53
tp3262
(I600
I600
tp3263
s(g63
g90
tp3264
(I597
I597
tp3265
s(g59
g98
tp3266
(I600
I600
tp3267
s(g146
g89
tp3268
(I989
I9
tp3269
s(g20
g63
tp3270
(I201
I206
tp3271
s(g28
g28
tp3272
(I200
I200
tp3273
s(g111
g90
tp3274
(I594
I404
tp3275
s(g24
g111
tp3276
(I600
I600
tp3277
s(g10
g74
tp3278
(I0
I1000
tp3279
s(g59
g59
tp3280
(I600
I600
tp3281
s(g209
g17
tp3282
(I1
I996
tp3283
s(g209
g89
tp3284
(I365
I755
tp3285
s(g52
g138
tp3286
(I600
I600
tp3287
s(g13
g21
tp3288
(I600
I600
tp3289
s(g279
g33
tp3290
(I0
I1000
tp3291
s(g36
g86
tp3292
(I0
I1000
tp3293
s(g49
g129
tp3294
(I600
I600
tp3295
s(g49
g70
tp3296
(I600
I600
tp3297
s(g170
g28
tp3298
(I200
I200
tp3299
s(g110
g86
tp3300
(I0
I1000
tp3301
s(g9
g52
tp3302
(I600
I600
tp3303
s(g24
g104
tp3304
(I600
I600
tp3305
s(g110
g90
tp3306
(I592
I597
tp3307
s(g129
g53
tp3308
(I600
I600
tp3309
s(g37
g16
tp3310
(I600
I600
tp3311
s(g126
g10
tp3312
(I9
I994
tp3313
s(g70
g73
tp3314
(I723
I148
tp3315
s(g49
g77
tp3316
(I600
I600
tp3317
s(g32
g138
tp3318
(I600
I600
tp3319
s(g141
g56
tp3320
(I600
I600
tp3321
s(g83
g10
tp3322
(I708
I348
tp3323
s(g107
g24
tp3324
(I107
I597
tp3325
s(g40
g129
tp3326
(I600
I600
tp3327
s(g166
g37
tp3328
(I600
I600
tp3329
s(g37
g37
tp3330
(I600
I600
tp3331
s(g24
g49
tp3332
(I600
I600
tp3333
s(g49
g111
tp3334
(I600
I600
tp3335
s(g89
g153
tp3336
(I749
I369
tp3337
s(g36
g59
tp3338
(I14
I984
tp3339
s(g24
g90
tp3340
(I595
I110
tp3341
s(g146
g32
tp3342
(I600
I600
tp3343
s(g45
g10
tp3344
(I515
I600
tp3345
s(g37
g153
tp3346
(I600
I600
tp3347
s(g262
g73
tp3348
(I520
I320
tp3349
s(g279
g13
tp3350
(I240
I190
tp3351
s(g138
g74
tp3352
(I0
I1000
tp3353
s(g279
g138
tp3354
(I1000
I0
tp3355
s(g45
g16
tp3356
(I600
I600
tp3357
s(g62
g93
tp3358
(I1000
I0
tp3359
s(g146
g98
tp3360
(I600
I600
tp3361
s(g80
g183
tp3362
(I600
I600
tp3363
s(g107
g80
tp3364
(I509
I494
tp3365
s(g46
g21
tp3366
(I998
I3
tp3367
s(g129
g90
tp3368
(I582
I132
tp3369
s(g62
g114
tp3370
(I450
I450
tp3371
ssb.