ccopy_reg
_reconstructor
p1
(caxelrod.tournament_manager
DeterministicCache
p2
c__builtin__
object
p3
NtRp4
(dp5
S'turns'
p6
I200
sS'cache'
p7
(dp8
(caxelrod.strategies.hunter
CooperatorHunter
p9
caxelrod.strategies.punisher
Punisher
p10
tp11
(I588
I603
tp12
s(g10
caxelrod.strategies.memoryone
WinStayLoseShift
p13
tp14
(I600
I600
tp15
s(caxelrod.strategies.titfortat
TitForTat
p16
caxelrod.strategies.retaliate
Retaliate3
p17
tp18
(I600
I600
tp19
s(caxelrod.strategies.hunter
MathConstantHunter
p20
caxelrod.strategies.mindcontrol
MindBender
p21
tp22
(I0
I1000
tp23
s(caxelrod.strategies.oncebitten
OnceBitten
p24
caxelrod.strategies.mindreader
MindReader
p25
tp26
(I0
I1000
tp27
s(caxelrod.strategies.hunter
DefectorHunter
p28
caxelrod.strategies.mathematicalconstants
Pi
p29
tp30
(I3
I998
tp31
s(caxelrod.strategies.grudger
OppositeGrudger
p32
caxelrod.strategies.mathematicalconstants
e
p33
tp34
(I305
I795
tp35
s(caxelrod.strategies.appeaser
Appeaser
p36
g13
tp37
(I600
I600
tp38
s(caxelrod.strategies.titfortat
TwoTitsForTat
p39
g33
tp40
(I631
I466
tp41
s(caxelrod.strategies.hunter
AlternatorHunter
p42
g21
tp43
(I0
I1000
tp44
s(caxelrod.strategies.retaliate
LimitedRetaliate
p45
g25
tp46
(I0
I1000
tp47
s(g45
caxelrod.strategies.titfortat
SneakyTitForTat
p48
tp49
(I609
I144
tp50
s(g13
caxelrod.strategies.mindcontrol
MindWarper
p51
tp52
(I0
I1000
tp53
s(caxelrod.strategies.gobymajority
GoByMajority5
p54
g20
tp55
(I600
I600
tp56
s(g29
caxelrod.strategies.geller
GellerDefector
p57
tp58
(I520
I520
tp59
s(g42
caxelrod.strategies.forgiver
ForgivingTitForTat
p60
tp61
(I600
I600
tp62
s(caxelrod.strategies.gobymajority
GoByMajority10
p63
caxelrod.strategies.gobymajority
GoByMajority20
p64
tp65
(I600
I600
tp66
s(g45
g45
tp67
(I600
I600
tp68
s(g9
caxelrod.strategies.mindreader
ProtectedMindReader
p69
tp70
(I0
I1000
tp71
s(caxelrod.strategies.retaliate
LimitedRetaliate3
p72
caxelrod.strategies.retaliate
Retaliate
p73
tp74
(I600
I600
tp75
s(g60
g20
tp76
(I600
I600
tp77
s(g32
caxelrod.strategies.defector
TrickyDefector
p78
tp79
(I200
I200
tp80
s(caxelrod.strategies.grumpy
Grumpy
p81
g81
tp82
(I600
I600
tp83
s(caxelrod.strategies.hunter
MetaHunter
p84
g21
tp85
(I0
I1000
tp86
s(g64
caxelrod.strategies.mindcontrol
MindController
p87
tp88
(I0
I1000
tp89
s(g60
caxelrod.strategies.titfortat
SuspiciousTitForTat
p90
tp91
(I450
I450
tp92
s(caxelrod.strategies.defector
Defector
p93
g10
tp94
(I204
I199
tp95
s(caxelrod.strategies.cooperator
Cooperator
p96
caxelrod.strategies.oncebitten
FoolMeOnce
p97
tp98
(I600
I600
tp99
s(g42
g39
tp100
(I600
I600
tp101
s(g63
g17
tp102
(I600
I600
tp103
s(g45
g87
tp104
(I0
I1000
tp105
s(g60
g10
tp106
(I600
I600
tp107
s(caxelrod.strategies.grudger
ForgetfulGrudger
p108
g60
tp109
(I600
I600
tp110
s(g36
g69
tp111
(I0
I1000
tp112
s(g54
g90
tp113
(I470
I480
tp114
s(g20
caxelrod.strategies.hunter
RandomHunter
p115
tp116
(I600
I600
tp117
s(g28
g63
tp118
(I600
I600
tp119
s(g24
g57
tp120
(I600
I600
tp121
s(g16
g54
tp122
(I600
I600
tp123
s(g29
g48
tp124
(I559
I559
tp125
s(caxelrod.strategies.alternator
Alternator
p126
g10
tp127
(I171
I581
tp128
s(g28
g45
tp129
(I600
I600
tp130
s(g126
g93
tp131
(I100
I600
tp132
s(g17
caxelrod.strategies.titfortat
TitFor2Tats
p133
tp134
(I600
I600
tp135
s(g93
g64
tp136
(I204
I199
tp137
s(g93
caxelrod.strategies.punisher
InversePunisher
p138
tp139
(I204
I199
tp140
s(caxelrod.strategies.gobymajority
GoByMajority40
p141
g20
tp142
(I600
I600
tp143
s(caxelrod.strategies.grudger
Grudger
p144
g25
tp145
(I0
I1000
tp146
s(g36
caxelrod.strategies.forgiver
Forgiver
p147
tp148
(I600
I600
tp149
s(g54
g78
tp150
(I420
I420
tp151
s(g63
g13
tp152
(I600
I600
tp153
s(g138
caxelrod.strategies.retaliate
Retaliate2
p154
tp155
(I600
I600
tp156
s(g96
g21
tp157
(I0
I1000
tp158
s(g24
g87
tp159
(I0
I1000
tp160
s(g29
g10
tp161
(I456
I661
tp162
s(g154
g87
tp163
(I0
I1000
tp164
s(caxelrod.strategies.gobymajority
GoByMajority
p165
g133
tp166
(I600
I600
tp167
s(g64
g115
tp168
(I600
I600
tp169
s(g42
caxelrod.strategies.darwin
Darwin
p170
tp171
(I597
I602
tp172
s(g81
g73
tp173
(I600
I600
tp174
s(g97
g48
tp175
(I594
I114
tp176
s(g165
g51
tp177
(I0
I1000
tp178
s(g78
g57
tp179
(I200
I200
tp180
s(g32
g10
tp181
(I539
I639
tp182
s(g33
g21
tp183
(I0
I1000
tp184
s(g28
g165
tp185
(I600
I600
tp186
s(g97
g17
tp187
(I600
I600
tp188
s(g154
g33
tp189
(I760
I335
tp190
s(g54
g17
tp191
(I600
I600
tp192
s(g93
g57
tp193
(I200
I200
tp194
s(g144
g39
tp195
(I600
I600
tp196
s(g42
g87
tp197
(I0
I1000
tp198
s(g42
caxelrod.strategies.retaliate
LimitedRetaliate2
p199
tp200
(I600
I600
tp201
s(g54
g39
tp202
(I600
I600
tp203
s(g17
g39
tp204
(I600
I600
tp205
s(g170
g51
tp206
(I0
I1000
tp207
s(g13
g87
tp208
(I0
I1000
tp209
s(g141
g69
tp210
(I0
I1000
tp211
s(g115
g48
tp212
(I582
I132
tp213
s(g42
g78
tp214
(I0
I1000
tp215
s(caxelrod.strategies.geller
GellerCooperator
p216
g216
tp217
(I600
I600
tp218
s(g60
g144
tp219
(I600
I600
tp220
s(g141
g141
tp221
(I600
I600
tp222
s(g144
g32
tp223
(I995
I5
tp224
s(g28
g141
tp225
(I600
I600
tp226
s(g24
g51
tp227
(I0
I1000
tp228
s(g25
g69
tp229
(I600
I600
tp230
s(g96
g78
tp231
(I0
I1000
tp232
s(g20
g29
tp233
(I921
I96
tp234
s(g60
g115
tp235
(I600
I600
tp236
s(g96
g147
tp237
(I600
I600
tp238
s(g60
g33
tp239
(I549
I549
tp240
s(g81
g170
tp241
(I608
I338
tp242
s(g199
g13
tp243
(I600
I600
tp244
s(g138
g21
tp245
(I0
I1000
tp246
s(g36
caxelrod.strategies.cooperator
TrickyCooperator
p247
tp248
(I515
I600
tp249
s(g28
g54
tp250
(I600
I600
tp251
s(g141
g21
tp252
(I0
I1000
tp253
s(g9
g138
tp254
(I552
I627
tp255
s(g36
g141
tp256
(I600
I600
tp257
s(g9
g54
tp258
(I595
I595
tp259
s(g96
g42
tp260
(I600
I600
tp261
s(g108
g10
tp262
(I600
I600
tp263
s(g63
g90
tp264
(I434
I504
tp265
s(g144
g170
tp266
(I315
I315
tp267
s(g199
g154
tp268
(I600
I600
tp269
s(g81
g84
tp270
(I600
I600
tp271
s(g147
g25
tp272
(I0
I1000
tp273
s(g48
g48
tp274
(I596
I596
tp275
s(g141
g39
tp276
(I600
I600
tp277
s(g28
g216
tp278
(I600
I600
tp279
s(g24
g216
tp280
(I600
I600
tp281
s(g36
g21
tp282
(I0
I1000
tp283
s(g84
g69
tp284
(I0
I1000
tp285
s(g10
g170
tp286
(I600
I600
tp287
s(g48
g39
tp288
(I337
I662
tp289
s(caxelrod.strategies.mathematicalconstants
Golden
p290
g73
tp291
(I280
I775
tp292
s(g108
g81
tp293
(I600
I600
tp294
s(g64
g90
tp295
(I447
I482
tp296
s(g133
g25
tp297
(I0
I1000
tp298
s(g290
g20
tp299
(I78
I928
tp300
s(g54
g133
tp301
(I600
I600
tp302
s(g97
g84
tp303
(I600
I600
tp304
s(g24
g73
tp305
(I600
I600
tp306
s(g247
g57
tp307
(I564
I564
tp308
s(g165
g29
tp309
(I374
I744
tp310
s(g45
g199
tp311
(I600
I600
tp312
s(g97
g78
tp313
(I978
I13
tp314
s(g144
g20
tp315
(I600
I600
tp316
s(g64
g199
tp317
(I600
I600
tp318
s(g51
g51
tp319
(I0
I1000
tp320
s(g29
g17
tp321
(I366
I746
tp322
s(g54
g13
tp323
(I600
I600
tp324
s(g144
g51
tp325
(I0
I1000
tp326
s(g84
g32
tp327
(I981
I26
tp328
s(g126
g69
tp329
(I0
I1000
tp330
s(g9
g21
tp331
(I0
I1000
tp332
s(g48
g57
tp333
(I596
I596
tp334
s(g81
g216
tp335
(I600
I600
tp336
s(g72
g90
tp337
(I864
I104
tp338
s(g60
g29
tp339
(I559
I559
tp340
s(g115
g154
tp341
(I600
I600
tp342
s(g42
g108
tp343
(I600
I600
tp344
s(g108
g21
tp345
(I0
I1000
tp346
s(g64
g48
tp347
(I592
I597
tp348
s(g144
g247
tp349
(I985
I15
tp350
s(g13
g33
tp351
(I978
I23
tp352
s(g199
g216
tp353
(I600
I600
tp354
s(g36
g154
tp355
(I600
I600
tp356
s(g42
g115
tp357
(I600
I600
tp358
s(g72
g20
tp359
(I600
I600
tp360
s(g20
g133
tp361
(I600
I600
tp362
s(g16
g138
tp363
(I600
I600
tp364
s(g138
g90
tp365
(I870
I105
tp366
s(g13
g21
tp367
(I0
I1000
tp368
s(g21
g51
tp369
(I1000
I0
tp370
s(g126
g126
tp371
(I400
I400
tp372
s(g144
g90
tp373
(I991
I6
tp374
s(g73
g57
tp375
(I600
I600
tp376
s(g36
g25
tp377
(I0
I1000
tp378
s(g144
g87
tp379
(I0
I1000
tp380
s(g48
g21
tp381
(I0
I1000
tp382
s(g93
g247
tp383
(I1000
I0
tp384
s(g36
g81
tp385
(I600
I600
tp386
s(g9
g154
tp387
(I561
I621
tp388
s(g54
g247
tp389
(I540
I540
tp390
s(g90
g216
tp391
(I400
I400
tp392
s(g115
g57
tp393
(I600
I600
tp394
s(g54
g25
tp395
(I0
I1000
tp396
s(g36
g165
tp397
(I600
I600
tp398
s(g115
g133
tp399
(I600
I600
tp400
s(g63
g48
tp401
(I592
I597
tp402
s(g138
g78
tp403
(I717
I162
tp404
s(g154
g154
tp405
(I600
I600
tp406
s(g108
g73
tp407
(I600
I600
tp408
s(g16
g10
tp409
(I600
I600
tp410
s(g24
g13
tp411
(I600
I600
tp412
s(g115
g21
tp413
(I0
I1000
tp414
s(g9
g17
tp415
(I540
I635
tp416
s(g39
g69
tp417
(I0
I1000
tp418
s(g45
g20
tp419
(I600
I600
tp420
s(g126
g97
tp421
(I114
I594
tp422
s(g115
g216
tp423
(I600
I600
tp424
s(g36
g51
tp425
(I0
I1000
tp426
s(g48
g13
tp427
(I600
I595
tp428
s(g42
g63
tp429
(I600
I600
tp430
s(g60
g133
tp431
(I600
I600
tp432
s(g57
g21
tp433
(I1
I996
tp434
s(g33
g57
tp435
(I500
I500
tp436
s(g21
g69
tp437
(I1000
I0
tp438
s(g73
g69
tp439
(I0
I1000
tp440
s(g32
g216
tp441
(I200
I200
tp442
s(g20
g78
tp443
(I0
I1000
tp444
s(g64
g81
tp445
(I600
I600
tp446
s(g147
g13
tp447
(I600
I600
tp448
s(g126
g17
tp449
(I123
I593
tp450
s(g21
g25
tp451
(I1000
I0
tp452
s(g48
g90
tp453
(I447
I452
tp454
s(g16
g69
tp455
(I0
I1000
tp456
s(g16
g20
tp457
(I600
I600
tp458
s(g28
g73
tp459
(I600
I600
tp460
s(g290
g81
tp461
(I647
I412
tp462
s(g54
g57
tp463
(I600
I600
tp464
s(g147
g144
tp465
(I600
I600
tp466
s(g28
g20
tp467
(I600
I600
tp468
s(g138
g25
tp469
(I0
I1000
tp470
s(g72
g115
tp471
(I600
I600
tp472
s(g42
g97
tp473
(I600
I600
tp474
s(g96
g16
tp475
(I600
I600
tp476
s(g108
g199
tp477
(I600
I600
tp478
s(g290
g29
tp479
(I860
I205
tp480
s(g126
g154
tp481
(I135
I590
tp482
s(g63
g21
tp483
(I0
I1000
tp484
s(g84
g73
tp485
(I600
I600
tp486
s(g32
g73
tp487
(I572
I617
tp488
s(g54
g199
tp489
(I600
I600
tp490
s(g108
g51
tp491
(I0
I1000
tp492
s(g16
g33
tp493
(I549
I549
tp494
s(g147
g57
tp495
(I600
I600
tp496
s(g16
g25
tp497
(I0
I1000
tp498
s(g126
g87
tp499
(I0
I1000
tp500
s(g199
g72
tp501
(I600
I600
tp502
s(g170
g170
tp503
(I600
I600
tp504
s(g144
g57
tp505
(I600
I600
tp506
s(g141
g216
tp507
(I600
I600
tp508
s(g33
g51
tp509
(I0
I1000
tp510
s(g36
g73
tp511
(I600
I600
tp512
s(g16
g154
tp513
(I600
I600
tp514
s(g73
g48
tp515
(I609
I144
tp516
s(g84
g48
tp517
(I582
I132
tp518
s(g28
g13
tp519
(I600
I600
tp520
s(g29
g21
tp521
(I0
I1000
tp522
s(g108
g33
tp523
(I755
I340
tp524
s(g72
g87
tp525
(I0
I1000
tp526
s(g141
g24
tp527
(I600
I600
tp528
s(g16
g216
tp529
(I600
I600
tp530
s(g290
g133
tp531
(I695
I370
tp532
s(g57
g69
tp533
(I0
I1000
tp534
s(g290
g39
tp535
(I434
I599
tp536
s(g147
g87
tp537
(I0
I1000
tp538
s(g54
g84
tp539
(I600
I600
tp540
s(g28
g32
tp541
(I597
I602
tp542
s(g20
g13
tp543
(I600
I600
tp544
s(g63
g25
tp545
(I0
I1000
tp546
s(g63
g20
tp547
(I600
I600
tp548
s(g64
g20
tp549
(I600
I600
tp550
s(g126
g21
tp551
(I0
I1000
tp552
s(g165
g10
tp553
(I600
I600
tp554
s(g84
g17
tp555
(I600
I600
tp556
s(g93
g60
tp557
(I204
I199
tp558
s(g64
g73
tp559
(I600
I600
tp560
s(g32
g51
tp561
(I0
I1000
tp562
s(g126
g115
tp563
(I128
I588
tp564
s(g21
g21
tp565
(I1000
I0
tp566
s(g9
g87
tp567
(I0
I1000
tp568
s(g144
g45
tp569
(I600
I600
tp570
s(g141
g115
tp571
(I600
I600
tp572
s(g126
g54
tp573
(I509
I494
tp574
s(g81
g51
tp575
(I0
I1000
tp576
s(g42
g9
tp577
(I12
I992
tp578
s(g93
g87
tp579
(I0
I1000
tp580
s(g73
g90
tp581
(I826
I141
tp582
s(g9
g24
tp583
(I572
I612
tp584
s(g93
g78
tp585
(I200
I200
tp586
s(g29
g90
tp587
(I0
I1000
tp588
s(g64
g247
tp589
(I496
I546
tp590
s(g96
g39
tp591
(I600
I600
tp592
s(g93
g147
tp593
(I204
I199
tp594
s(g96
g9
tp595
(I12
I992
tp596
s(g25
g51
tp597
(I600
I600
tp598
s(g96
g133
tp599
(I600
I600
tp600
s(g141
g247
tp601
(I427
I632
tp602
s(g165
g54
tp603
(I600
I600
tp604
s(g20
g247
tp605
(I892
I117
tp606
s(g138
g72
tp607
(I600
I600
tp608
s(g81
g138
tp609
(I600
I600
tp610
s(g9
g20
tp611
(I173
I858
tp612
s(g9
g33
tp613
(I3
I998
tp614
s(g93
g28
tp615
(I216
I196
tp616
s(g154
g21
tp617
(I0
I1000
tp618
s(g64
g133
tp619
(I600
I600
tp620
s(g9
g25
tp621
(I0
I1000
tp622
s(g96
g57
tp623
(I600
I600
tp624
s(g93
g170
tp625
(I208
I198
tp626
s(g64
g154
tp627
(I600
I600
tp628
s(g108
g54
tp629
(I600
I600
tp630
s(g97
g147
tp631
(I600
I600
tp632
s(g32
g29
tp633
(I365
I755
tp634
s(g147
g54
tp635
(I600
I600
tp636
s(g87
g51
tp637
(I600
I600
tp638
s(g36
g290
tp639
(I967
I32
tp640
s(g93
g13
tp641
(I600
I100
tp642
s(g165
g33
tp643
(I314
I784
tp644
s(g108
g216
tp645
(I600
I600
tp646
s(g60
g247
tp647
(I550
I555
tp648
s(g42
g165
tp649
(I600
I600
tp650
s(g154
g78
tp651
(I774
I129
tp652
s(g45
g73
tp653
(I600
I600
tp654
s(g54
g138
tp655
(I600
I600
tp656
s(g93
g21
tp657
(I1
I996
tp658
s(g97
g108
tp659
(I600
I600
tp660
s(g154
g57
tp661
(I600
I600
tp662
s(g97
g144
tp663
(I600
I600
tp664
s(g216
g57
tp665
(I1000
I0
tp666
s(g10
g25
tp667
(I0
I1000
tp668
s(g54
g48
tp669
(I591
I591
tp670
s(g39
g13
tp671
(I600
I600
tp672
s(g28
g81
tp673
(I600
I600
tp674
s(g28
g48
tp675
(I6
I996
tp676
s(g17
g78
tp677
(I848
I88
tp678
s(g72
g33
tp679
(I783
I308
tp680
s(g64
g39
tp681
(I600
I600
tp682
s(g42
g51
tp683
(I0
I1000
tp684
s(g290
g10
tp685
(I376
I656
tp686
s(g165
g87
tp687
(I0
I1000
tp688
s(g63
g216
tp689
(I600
I600
tp690
s(g9
g13
tp691
(I600
I595
tp692
s(g24
g170
tp693
(I600
I600
tp694
s(g96
g60
tp695
(I600
I600
tp696
s(g126
g90
tp697
(I397
I402
tp698
s(g290
g51
tp699
(I0
I1000
tp700
s(g141
g48
tp701
(I592
I597
tp702
s(g216
g87
tp703
(I0
I1000
tp704
s(g199
g133
tp705
(I600
I600
tp706
s(g165
g144
tp707
(I600
I600
tp708
s(g97
g32
tp709
(I597
I602
tp710
s(g199
g69
tp711
(I0
I1000
tp712
s(g138
g247
tp713
(I811
I231
tp714
s(g154
g216
tp715
(I600
I600
tp716
s(g16
g24
tp717
(I600
I600
tp718
s(g78
g33
tp719
(I1000
I0
tp720
s(g29
g115
tp721
(I39
I959
tp722
s(g45
g13
tp723
(I600
I600
tp724
s(g96
g20
tp725
(I600
I600
tp726
s(g96
g290
tp727
(I3
I998
tp728
s(g93
g9
tp729
(I1000
I0
tp730
s(g63
g247
tp731
(I498
I568
tp732
s(g290
g138
tp733
(I245
I815
tp734
s(g81
g115
tp735
(I600
I600
tp736
s(g45
g10
tp737
(I600
I600
tp738
s(g138
g199
tp739
(I600
I600
tp740
s(g115
g115
tp741
(I600
I600
tp742
s(g9
g39
tp743
(I594
I599
tp744
s(g36
g32
tp745
(I995
I5
tp746
s(g96
g170
tp747
(I6
I996
tp748
s(g39
g39
tp749
(I600
I600
tp750
s(g126
g9
tp751
(I800
I300
tp752
s(g141
g87
tp753
(I0
I1000
tp754
s(g96
g247
tp755
(I9
I994
tp756
s(g9
g64
tp757
(I602
I587
tp758
s(g20
g25
tp759
(I0
I1000
tp760
s(g97
g21
tp761
(I0
I1000
tp762
s(g63
g144
tp763
(I600
I600
tp764
s(g16
g72
tp765
(I600
I600
tp766
s(g290
g33
tp767
(I860
I205
tp768
s(g126
g138
tp769
(I171
I581
tp770
s(g63
g32
tp771
(I599
I599
tp772
s(g144
g17
tp773
(I600
I600
tp774
s(g16
g29
tp775
(I559
I559
tp776
s(g64
g57
tp777
(I600
I600
tp778
s(g60
g165
tp779
(I600
I600
tp780
s(g20
g20
tp781
(I600
I600
tp782
s(g199
g87
tp783
(I0
I1000
tp784
s(g147
g20
tp785
(I600
I600
tp786
s(g28
g84
tp787
(I600
I600
tp788
s(g147
g69
tp789
(I0
I1000
tp790
s(g78
g87
tp791
(I0
I1000
tp792
s(g10
g216
tp793
(I600
I600
tp794
s(g20
g48
tp795
(I574
I144
tp796
s(g57
g25
tp797
(I0
I1000
tp798
s(g16
g13
tp799
(I600
I600
tp800
s(g138
g69
tp801
(I0
I1000
tp802
s(g199
g17
tp803
(I600
I600
tp804
s(g16
g36
tp805
(I600
I600
tp806
s(g165
g73
tp807
(I600
I600
tp808
s(g141
g133
tp809
(I600
I600
tp810
s(g60
g290
tp811
(I532
I532
tp812
s(g93
g93
tp813
(I200
I200
tp814
s(g84
g247
tp815
(I965
I35
tp816
s(g64
g24
tp817
(I600
I600
tp818
s(g64
g170
tp819
(I239
I289
tp820
s(g93
g20
tp821
(I1000
I0
tp822
s(g144
g69
tp823
(I0
I1000
tp824
s(g93
g16
tp825
(I204
I199
tp826
s(g165
g72
tp827
(I600
I600
tp828
s(g13
g170
tp829
(I867
I92
tp830
s(g165
g165
tp831
(I600
I600
tp832
s(g97
g25
tp833
(I0
I1000
tp834
s(g81
g90
tp835
(I476
I516
tp836
s(g48
g170
tp837
(I132
I582
tp838
s(g9
g199
tp839
(I561
I621
tp840
s(g36
g133
tp841
(I600
I600
tp842
s(g16
g39
tp843
(I600
I600
tp844
s(g165
g24
tp845
(I600
I600
tp846
s(g90
g90
tp847
(I400
I400
tp848
s(g96
g32
tp849
(I597
I602
tp850
s(g28
g51
tp851
(I0
I1000
tp852
s(g170
g25
tp853
(I0
I1000
tp854
s(g73
g17
tp855
(I600
I600
tp856
s(g9
g216
tp857
(I598
I598
tp858
s(g126
g16
tp859
(I503
I498
tp860
s(g97
g216
tp861
(I600
I600
tp862
s(g16
g64
tp863
(I600
I600
tp864
s(g115
g25
tp865
(I0
I1000
tp866
s(g16
g108
tp867
(I600
I600
tp868
s(g16
g28
tp869
(I600
I600
tp870
s(g36
g9
tp871
(I595
I600
tp872
s(g147
g138
tp873
(I600
I600
tp874
s(g108
g20
tp875
(I600
I600
tp876
s(g64
g45
tp877
(I600
I600
tp878
s(g90
g33
tp879
(I1000
I0
tp880
s(g97
g199
tp881
(I600
I600
tp882
s(g36
g108
tp883
(I600
I600
tp884
s(g97
g73
tp885
(I600
I600
tp886
s(g141
g33
tp887
(I314
I784
tp888
s(g10
g39
tp889
(I600
I600
tp890
s(g60
g72
tp891
(I600
I600
tp892
s(g20
g51
tp893
(I0
I1000
tp894
s(g141
g199
tp895
(I600
I600
tp896
s(g48
g51
tp897
(I0
I1000
tp898
s(g21
g87
tp899
(I1000
I0
tp900
s(g247
g87
tp901
(I0
I1000
tp902
s(g126
g39
tp903
(I107
I597
tp904
s(g199
g73
tp905
(I600
I600
tp906
s(g60
g78
tp907
(I364
I369
tp908
s(g290
g13
tp909
(I32
I967
tp910
s(g73
g21
tp911
(I0
I1000
tp912
s(g54
g32
tp913
(I599
I599
tp914
s(g16
g247
tp915
(I550
I555
tp916
s(g90
g51
tp917
(I0
I1000
tp918
s(g108
g87
tp919
(I0
I1000
tp920
s(g24
g32
tp921
(I597
I602
tp922
s(g36
g90
tp923
(I265
I600
tp924
s(g115
g17
tp925
(I600
I600
tp926
s(g199
g247
tp927
(I757
I302
tp928
s(g72
g170
tp929
(I600
I600
tp930
s(g28
g170
tp931
(I414
I724
tp932
s(g93
g39
tp933
(I204
I199
tp934
s(g32
g115
tp935
(I26
I981
tp936
s(g96
g216
tp937
(I600
I600
tp938
s(g63
g199
tp939
(I600
I600
tp940
s(g13
g69
tp941
(I0
I1000
tp942
s(g16
g73
tp943
(I600
I600
tp944
s(g126
g36
tp945
(I450
I450
tp946
s(g154
g247
tp947
(I757
I302
tp948
s(g90
g170
tp949
(I144
I854
tp950
s(g96
g45
tp951
(I600
I600
tp952
s(g126
g13
tp953
(I450
I450
tp954
s(g115
g33
tp955
(I959
I39
tp956
s(g39
g25
tp957
(I0
I1000
tp958
s(g17
g33
tp959
(I783
I308
tp960
s(g54
g144
tp961
(I600
I600
tp962
s(g63
g115
tp963
(I600
I600
tp964
s(g97
g97
tp965
(I600
I600
tp966
s(g199
g21
tp967
(I0
I1000
tp968
s(g42
g144
tp969
(I600
I600
tp970
s(g78
g39
tp971
(I316
I451
tp972
s(g28
g97
tp973
(I600
I600
tp974
s(g84
g13
tp975
(I600
I600
tp976
s(g138
g39
tp977
(I600
I600
tp978
s(g60
g21
tp979
(I0
I1000
tp980
s(g108
g39
tp981
(I600
I600
tp982
s(g199
g51
tp983
(I0
I1000
tp984
s(g63
g29
tp985
(I374
I744
tp986
s(g45
g39
tp987
(I600
I600
tp988
s(g165
g216
tp989
(I600
I600
tp990
s(g97
g81
tp991
(I600
I600
tp992
s(g147
g51
tp993
(I0
I1000
tp994
s(g96
g28
tp995
(I600
I600
tp996
s(g90
g69
tp997
(I0
I1000
tp998
s(g57
g87
tp999
(I0
I1000
tp1000
s(g54
g21
tp1001
(I0
I1000
tp1002
s(g199
g10
tp1003
(I600
I600
tp1004
s(g147
g165
tp1005
(I600
I600
tp1006
s(g290
g24
tp1007
(I341
I721
tp1008
s(g16
g87
tp1009
(I0
I1000
tp1010
s(g39
g51
tp1011
(I0
I1000
tp1012
s(g81
g87
tp1013
(I0
I1000
tp1014
s(g138
g33
tp1015
(I776
I316
tp1016
s(g45
g170
tp1017
(I600
I600
tp1018
s(g42
g154
tp1019
(I600
I600
tp1020
s(g81
g69
tp1021
(I0
I1000
tp1022
s(g63
g54
tp1023
(I600
I600
tp1024
s(g81
g13
tp1025
(I600
I600
tp1026
s(g10
g247
tp1027
(I592
I507
tp1028
s(g36
g54
tp1029
(I600
I600
tp1030
s(g93
g29
tp1031
(I1000
I0
tp1032
s(g33
g87
tp1033
(I0
I1000
tp1034
s(g60
g199
tp1035
(I600
I600
tp1036
s(g147
g141
tp1037
(I600
I600
tp1038
s(g45
g51
tp1039
(I0
I1000
tp1040
s(g97
g45
tp1041
(I600
I600
tp1042
s(g165
g63
tp1043
(I600
I600
tp1044
s(g9
g247
tp1045
(I9
I994
tp1046
s(g20
g17
tp1047
(I600
I600
tp1048
s(g84
g216
tp1049
(I600
I600
tp1050
s(g9
g170
tp1051
(I311
I691
tp1052
s(g93
g72
tp1053
(I240
I190
tp1054
s(g115
g73
tp1055
(I600
I600
tp1056
s(g126
g96
tp1057
(I800
I300
tp1058
s(g126
g24
tp1059
(I800
I300
tp1060
s(g147
g133
tp1061
(I600
I600
tp1062
s(g96
g165
tp1063
(I600
I600
tp1064
s(g93
g290
tp1065
(I1000
I0
tp1066
s(g97
g29
tp1067
(I984
I14
tp1068
s(g126
g33
tp1069
(I796
I301
tp1070
s(g29
g154
tp1071
(I385
I730
tp1072
s(g16
g81
tp1073
(I600
I600
tp1074
s(g72
g21
tp1075
(I0
I1000
tp1076
s(g81
g20
tp1077
(I600
I600
tp1078
s(g93
g45
tp1079
(I240
I190
tp1080
s(g28
g10
tp1081
(I600
I600
tp1082
s(g24
g39
tp1083
(I600
I600
tp1084
s(g29
g170
tp1085
(I7
I992
tp1086
s(g60
g13
tp1087
(I600
I600
tp1088
s(g25
g25
tp1089
(I0
I1000
tp1090
s(g9
g78
tp1091
(I0
I1000
tp1092
s(g141
g25
tp1093
(I0
I1000
tp1094
s(g247
g247
tp1095
(I564
I564
tp1096
s(g10
g17
tp1097
(I600
I600
tp1098
s(g42
g290
tp1099
(I3
I998
tp1100
s(g141
g54
tp1101
(I600
I600
tp1102
s(g90
g133
tp1103
(I560
I360
tp1104
s(g39
g216
tp1105
(I600
I600
tp1106
s(g54
g29
tp1107
(I379
I739
tp1108
s(g138
g170
tp1109
(I600
I600
tp1110
s(g45
g33
tp1111
(I751
I346
tp1112
s(g141
g10
tp1113
(I600
I600
tp1114
s(g154
g90
tp1115
(I859
I114
tp1116
s(g138
g87
tp1117
(I0
I1000
tp1118
s(g63
g84
tp1119
(I600
I600
tp1120
s(g9
g29
tp1121
(I3
I998
tp1122
s(g32
g133
tp1123
(I602
I597
tp1124
s(g24
g24
tp1125
(I600
I600
tp1126
s(g20
g216
tp1127
(I600
I600
tp1128
s(g97
g24
tp1129
(I600
I600
tp1130
s(g147
g147
tp1131
(I600
I600
tp1132
s(g72
g32
tp1133
(I637
I542
tp1134
s(g165
g13
tp1135
(I600
I600
tp1136
s(g28
g64
tp1137
(I600
I600
tp1138
s(g64
g84
tp1139
(I600
I600
tp1140
s(g108
g147
tp1141
(I600
I600
tp1142
s(g97
g165
tp1143
(I600
I600
tp1144
s(g108
g165
tp1145
(I600
I600
tp1146
s(g10
g154
tp1147
(I600
I600
tp1148
s(g96
g29
tp1149
(I3
I998
tp1150
s(g33
g170
tp1151
(I998
I3
tp1152
s(g28
g33
tp1153
(I3
I998
tp1154
s(g45
g216
tp1155
(I600
I600
tp1156
s(g96
g93
tp1157
(I0
I1000
tp1158
s(g93
g115
tp1159
(I1000
I0
tp1160
s(g138
g32
tp1161
(I601
I596
tp1162
s(g115
g51
tp1163
(I0
I1000
tp1164
s(g199
g170
tp1165
(I600
I600
tp1166
s(g165
g45
tp1167
(I600
I600
tp1168
s(g42
g57
tp1169
(I600
I600
tp1170
s(g93
g54
tp1171
(I204
I199
tp1172
s(g133
g133
tp1173
(I600
I600
tp1174
s(g290
g170
tp1175
(I685
I380
tp1176
s(g290
g17
tp1177
(I244
I814
tp1178
s(g93
g144
tp1179
(I204
I199
tp1180
s(g216
g51
tp1181
(I0
I1000
tp1182
s(g9
g81
tp1183
(I559
I599
tp1184
s(g64
g25
tp1185
(I0
I1000
tp1186
s(g16
g199
tp1187
(I600
I600
tp1188
s(g108
g45
tp1189
(I600
I600
tp1190
s(g73
g39
tp1191
(I600
I600
tp1192
s(g97
g170
tp1193
(I600
I600
tp1194
s(g45
g21
tp1195
(I0
I1000
tp1196
s(g42
g90
tp1197
(I0
I1000
tp1198
s(g96
g96
tp1199
(I600
I600
tp1200
s(g60
g73
tp1201
(I600
I600
tp1202
s(g20
g32
tp1203
(I981
I26
tp1204
s(g290
g154
tp1205
(I268
I788
tp1206
s(g290
g87
tp1207
(I0
I1000
tp1208
s(g9
g9
tp1209
(I598
I598
tp1210
s(g96
g69
tp1211
(I0
I1000
tp1212
s(g9
g48
tp1213
(I6
I996
tp1214
s(g96
g87
tp1215
(I0
I1000
tp1216
s(g60
g57
tp1217
(I600
I600
tp1218
s(g9
g108
tp1219
(I570
I615
tp1220
s(g36
g144
tp1221
(I600
I600
tp1222
s(g36
g36
tp1223
(I600
I600
tp1224
s(g13
g216
tp1225
(I600
I600
tp1226
s(g24
g10
tp1227
(I600
I600
tp1228
s(g28
g25
tp1229
(I0
I1000
tp1230
s(g10
g133
tp1231
(I600
I600
tp1232
s(g16
g60
tp1233
(I600
I600
tp1234
s(g126
g51
tp1235
(I0
I1000
tp1236
s(g33
g33
tp1237
(I500
I500
tp1238
s(g147
g90
tp1239
(I892
I87
tp1240
s(g9
g290
tp1241
(I3
I998
tp1242
s(g126
g147
tp1243
(I107
I597
tp1244
s(g20
g90
tp1245
(I0
I1000
tp1246
s(g48
g33
tp1247
(I549
I549
tp1248
s(g63
g154
tp1249
(I600
I600
tp1250
s(g72
g25
tp1251
(I0
I1000
tp1252
s(g64
g78
tp1253
(I451
I421
tp1254
s(g72
g48
tp1255
(I594
I404
tp1256
s(g141
g78
tp1257
(I488
I368
tp1258
s(g36
g84
tp1259
(I600
I600
tp1260
s(g9
g84
tp1261
(I33
I968
tp1262
s(g63
g63
tp1263
(I600
I600
tp1264
s(g147
g81
tp1265
(I600
I600
tp1266
s(g57
g51
tp1267
(I0
I1000
tp1268
s(g81
g21
tp1269
(I0
I1000
tp1270
s(g32
g57
tp1271
(I200
I200
tp1272
s(g64
g51
tp1273
(I0
I1000
tp1274
s(g93
g90
tp1275
(I996
I1
tp1276
s(g115
g170
tp1277
(I600
I600
tp1278
s(g16
g133
tp1279
(I600
I600
tp1280
s(g290
g32
tp1281
(I861
I206
tp1282
s(g147
g290
tp1283
(I773
I273
tp1284
s(g32
g25
tp1285
(I0
I1000
tp1286
s(g13
g57
tp1287
(I600
I600
tp1288
s(g54
g69
tp1289
(I0
I1000
tp1290
s(g138
g17
tp1291
(I600
I600
tp1292
s(g78
g78
tp1293
(I200
I200
tp1294
s(g108
g290
tp1295
(I801
I261
tp1296
s(g199
g115
tp1297
(I600
I600
tp1298
s(g97
g87
tp1299
(I0
I1000
tp1300
s(g16
g141
tp1301
(I600
I600
tp1302
s(g9
g73
tp1303
(I570
I615
tp1304
s(g154
g13
tp1305
(I600
I600
tp1306
s(g28
g78
tp1307
(I11
I981
tp1308
s(g42
g13
tp1309
(I600
I600
tp1310
s(g60
g69
tp1311
(I0
I1000
tp1312
s(g24
g78
tp1313
(I646
I236
tp1314
s(g36
g57
tp1315
(I600
I600
tp1316
s(g141
g72
tp1317
(I600
I600
tp1318
s(g78
g51
tp1319
(I0
I1000
tp1320
s(g10
g69
tp1321
(I0
I1000
tp1322
s(g64
g72
tp1323
(I600
I600
tp1324
s(g97
g154
tp1325
(I600
I600
tp1326
s(g141
g29
tp1327
(I374
I744
tp1328
s(g147
g63
tp1329
(I600
I600
tp1330
s(g126
g216
tp1331
(I400
I400
tp1332
s(g93
g69
tp1333
(I0
I1000
tp1334
s(g144
g216
tp1335
(I600
I600
tp1336
s(g16
g48
tp1337
(I597
I597
tp1338
s(g45
g17
tp1339
(I600
I600
tp1340
s(g126
g57
tp1341
(I400
I400
tp1342
s(g72
g13
tp1343
(I600
I600
tp1344
s(g84
g90
tp1345
(I965
I30
tp1346
s(g17
g21
tp1347
(I0
I1000
tp1348
s(g48
g87
tp1349
(I0
I1000
tp1350
s(g36
g87
tp1351
(I0
I1000
tp1352
s(g48
g25
tp1353
(I0
I1000
tp1354
s(g144
g199
tp1355
(I600
I600
tp1356
s(g90
g21
tp1357
(I1
I996
tp1358
s(g141
g90
tp1359
(I459
I474
tp1360
s(g144
g73
tp1361
(I600
I600
tp1362
s(g33
g25
tp1363
(I0
I1000
tp1364
s(g45
g154
tp1365
(I600
I600
tp1366
s(g45
g57
tp1367
(I600
I600
tp1368
s(g45
g32
tp1369
(I617
I572
tp1370
s(g73
g51
tp1371
(I0
I1000
tp1372
s(g63
g69
tp1373
(I0
I1000
tp1374
s(g216
g21
tp1375
(I1
I996
tp1376
s(g78
g216
tp1377
(I200
I200
tp1378
s(g290
g25
tp1379
(I0
I1000
tp1380
s(g90
g39
tp1381
(I360
I560
tp1382
s(g54
g54
tp1383
(I600
I600
tp1384
s(g36
g48
tp1385
(I595
I600
tp1386
s(g72
g247
tp1387
(I810
I240
tp1388
s(g93
g216
tp1389
(I200
I200
tp1390
s(g133
g39
tp1391
(I600
I600
tp1392
s(g147
g73
tp1393
(I600
I600
tp1394
s(g147
g115
tp1395
(I600
I600
tp1396
s(g199
g199
tp1397
(I600
I600
tp1398
s(g72
g24
tp1399
(I600
I600
tp1400
s(g144
g29
tp1401
(I989
I9
tp1402
s(g96
g90
tp1403
(I0
I1000
tp1404
s(g29
g39
tp1405
(I494
I624
tp1406
s(g16
g42
tp1407
(I600
I600
tp1408
s(g96
g72
tp1409
(I600
I600
tp1410
s(g108
g247
tp1411
(I735
I330
tp1412
s(g64
g33
tp1413
(I314
I784
tp1414
s(g96
g154
tp1415
(I600
I600
tp1416
s(g48
g78
tp1417
(I100
I600
tp1418
s(g93
g165
tp1419
(I204
I199
tp1420
s(g290
g21
tp1421
(I0
I1000
tp1422
s(g147
g247
tp1423
(I781
I261
tp1424
s(g28
g290
tp1425
(I3
I998
tp1426
s(g199
g90
tp1427
(I859
I114
tp1428
s(g90
g78
tp1429
(I1
I996
tp1430
s(g165
g154
tp1431
(I600
I600
tp1432
s(g97
g57
tp1433
(I600
I600
tp1434
s(g29
g78
tp1435
(I0
I1000
tp1436
s(g108
g64
tp1437
(I600
I600
tp1438
s(g84
g29
tp1439
(I959
I39
tp1440
s(g138
g133
tp1441
(I600
I600
tp1442
s(g108
g133
tp1443
(I600
I600
tp1444
s(g247
g51
tp1445
(I0
I1000
tp1446
s(g42
g17
tp1447
(I600
I600
tp1448
s(g54
g216
tp1449
(I600
I600
tp1450
s(g72
g51
tp1451
(I0
I1000
tp1452
s(g115
g87
tp1453
(I0
I1000
tp1454
s(g16
g16
tp1455
(I600
I600
tp1456
s(g199
g48
tp1457
(I587
I157
tp1458
s(g9
g32
tp1459
(I597
I602
tp1460
s(g16
g84
tp1461
(I600
I600
tp1462
s(g28
g138
tp1463
(I600
I600
tp1464
s(g32
g39
tp1465
(I596
I601
tp1466
s(g51
g69
tp1467
(I600
I600
tp1468
s(g36
g216
tp1469
(I600
I600
tp1470
s(g247
g39
tp1471
(I518
I583
tp1472
s(g39
g87
tp1473
(I0
I1000
tp1474
s(g20
g170
tp1475
(I600
I600
tp1476
s(g10
g33
tp1477
(I681
I416
tp1478
s(g108
g17
tp1479
(I600
I600
tp1480
s(g144
g81
tp1481
(I600
I600
tp1482
s(g63
g141
tp1483
(I600
I600
tp1484
s(g199
g33
tp1485
(I760
I335
tp1486
s(g42
g33
tp1487
(I3
I998
tp1488
s(g199
g57
tp1489
(I600
I600
tp1490
s(g126
g84
tp1491
(I114
I594
tp1492
s(g290
g115
tp1493
(I39
I959
tp1494
s(g138
g115
tp1495
(I600
I600
tp1496
s(g64
g10
tp1497
(I600
I600
tp1498
s(g290
g290
tp1499
(I466
I466
tp1500
s(g32
g69
tp1501
(I0
I1000
tp1502
s(g45
g72
tp1503
(I600
I600
tp1504
s(g10
g48
tp1505
(I617
I172
tp1506
s(g93
g81
tp1507
(I244
I189
tp1508
s(g72
g69
tp1509
(I0
I1000
tp1510
s(g144
g13
tp1511
(I600
I600
tp1512
s(g9
g165
tp1513
(I602
I587
tp1514
s(g42
g54
tp1515
(I600
I600
tp1516
s(g81
g72
tp1517
(I600
I600
tp1518
s(g96
g115
tp1519
(I600
I600
tp1520
s(g133
g216
tp1521
(I600
I600
tp1522
s(g290
g84
tp1523
(I39
I959
tp1524
s(g60
g60
tp1525
(I600
I600
tp1526
s(g138
g51
tp1527
(I0
I1000
tp1528
s(g72
g84
tp1529
(I600
I600
tp1530
s(g96
g54
tp1531
(I600
I600
tp1532
s(g96
g144
tp1533
(I600
I600
tp1534
s(g126
g108
tp1535
(I171
I581
tp1536
s(g24
g69
tp1537
(I0
I1000
tp1538
s(g97
g60
tp1539
(I600
I600
tp1540
s(g17
g25
tp1541
(I0
I1000
tp1542
s(g141
g290
tp1543
(I400
I665
tp1544
s(g165
g170
tp1545
(I214
I269
tp1546
s(g32
g17
tp1547
(I542
I637
tp1548
s(g36
g28
tp1549
(I600
I600
tp1550
s(g81
g29
tp1551
(I479
I639
tp1552
s(g60
g170
tp1553
(I600
I600
tp1554
s(g29
g13
tp1555
(I29
I974
tp1556
s(g63
g72
tp1557
(I600
I600
tp1558
s(g78
g69
tp1559
(I0
I1000
tp1560
s(g42
g10
tp1561
(I600
I600
tp1562
s(g216
g69
tp1563
(I0
I1000
tp1564
s(g290
g90
tp1565
(I0
I1000
tp1566
s(g16
g9
tp1567
(I597
I597
tp1568
s(g9
g147
tp1569
(I558
I623
tp1570
s(g97
g290
tp1571
(I984
I14
tp1572
s(g108
g69
tp1573
(I0
I1000
tp1574
s(g138
g29
tp1575
(I743
I368
tp1576
s(g36
g10
tp1577
(I600
I600
tp1578
s(g290
g247
tp1579
(I998
I3
tp1580
s(g28
g147
tp1581
(I600
I600
tp1582
s(g147
g29
tp1583
(I664
I454
tp1584
s(g97
g33
tp1585
(I984
I14
tp1586
s(g63
g73
tp1587
(I600
I600
tp1588
s(g45
g115
tp1589
(I600
I600
tp1590
s(g115
g13
tp1591
(I600
I600
tp1592
s(g141
g154
tp1593
(I600
I600
tp1594
s(g24
g247
tp1595
(I708
I348
tp1596
s(g72
g154
tp1597
(I600
I600
tp1598
s(g108
g57
tp1599
(I600
I600
tp1600
s(g9
g60
tp1601
(I597
I597
tp1602
s(g90
g13
tp1603
(I600
I265
tp1604
s(g84
g57
tp1605
(I600
I600
tp1606
s(g72
g133
tp1607
(I600
I600
tp1608
s(g126
g48
tp1609
(I650
I400
tp1610
s(g24
g33
tp1611
(I354
I744
tp1612
s(g42
g24
tp1613
(I600
I600
tp1614
s(g32
g154
tp1615
(I563
I623
tp1616
s(g144
g24
tp1617
(I600
I600
tp1618
s(g57
g57
tp1619
(I200
I200
tp1620
s(g54
g24
tp1621
(I600
I600
tp1622
s(g73
g87
tp1623
(I0
I1000
tp1624
s(g97
g54
tp1625
(I600
I600
tp1626
s(g9
g45
tp1627
(I570
I615
tp1628
s(g29
g29
tp1629
(I520
I520
tp1630
s(g93
g73
tp1631
(I204
I199
tp1632
s(g126
g141
tp1633
(I800
I300
tp1634
s(g147
g199
tp1635
(I600
I600
tp1636
s(g84
g51
tp1637
(I0
I1000
tp1638
s(g24
g21
tp1639
(I0
I1000
tp1640
s(g81
g32
tp1641
(I597
I602
tp1642
s(g16
g165
tp1643
(I600
I600
tp1644
s(g165
g90
tp1645
(I463
I468
tp1646
s(g154
g48
tp1647
(I597
I537
tp1648
s(g141
g81
tp1649
(I600
I600
tp1650
s(g9
g133
tp1651
(I599
I594
tp1652
s(g108
g108
tp1653
(I600
I600
tp1654
s(g93
g51
tp1655
(I0
I1000
tp1656
s(g84
g170
tp1657
(I600
I600
tp1658
s(g147
g170
tp1659
(I600
I600
tp1660
s(g126
g72
tp1661
(I138
I583
tp1662
s(g54
g10
tp1663
(I600
I600
tp1664
s(g17
g51
tp1665
(I0
I1000
tp1666
s(g133
g21
tp1667
(I0
I1000
tp1668
s(g36
g138
tp1669
(I600
I600
tp1670
s(g9
g141
tp1671
(I602
I587
tp1672
s(g165
g64
tp1673
(I600
I600
tp1674
s(g96
g51
tp1675
(I0
I1000
tp1676
s(g165
g78
tp1677
(I520
I320
tp1678
s(g36
g72
tp1679
(I600
I600
tp1680
s(g54
g45
tp1681
(I600
I600
tp1682
s(g199
g29
tp1683
(I730
I385
tp1684
s(g78
g21
tp1685
(I1
I996
tp1686
s(g63
g87
tp1687
(I0
I1000
tp1688
s(g199
g32
tp1689
(I623
I563
tp1690
s(g60
g32
tp1691
(I599
I599
tp1692
s(g60
g216
tp1693
(I600
I600
tp1694
s(g16
g147
tp1695
(I600
I600
tp1696
s(g138
g20
tp1697
(I600
I600
tp1698
s(g60
g45
tp1699
(I600
I600
tp1700
s(g45
g90
tp1701
(I826
I141
tp1702
s(g48
g247
tp1703
(I996
I6
tp1704
s(g81
g78
tp1705
(I524
I444
tp1706
s(g141
g138
tp1707
(I600
I600
tp1708
s(g17
g13
tp1709
(I600
I600
tp1710
s(g29
g73
tp1711
(I401
I716
tp1712
s(g90
g247
tp1713
(I1000
I0
tp1714
s(g9
g28
tp1715
(I992
I12
tp1716
s(g63
g81
tp1717
(I600
I600
tp1718
s(g9
g57
tp1719
(I598
I598
tp1720
s(g42
g36
tp1721
(I600
I600
tp1722
s(g10
g115
tp1723
(I600
I600
tp1724
s(g133
g247
tp1725
(I513
I588
tp1726
s(g36
g63
tp1727
(I600
I600
tp1728
s(g48
g133
tp1729
(I599
I594
tp1730
s(g60
g64
tp1731
(I600
I600
tp1732
s(g144
g21
tp1733
(I0
I1000
tp1734
s(g32
g247
tp1735
(I35
I975
tp1736
s(g141
g51
tp1737
(I0
I1000
tp1738
s(g17
g69
tp1739
(I0
I1000
tp1740
s(g90
g25
tp1741
(I0
I1000
tp1742
s(g60
g17
tp1743
(I600
I600
tp1744
s(g17
g57
tp1745
(I600
I600
tp1746
s(g63
g10
tp1747
(I600
I600
tp1748
s(g144
g48
tp1749
(I595
I110
tp1750
s(g54
g33
tp1751
(I434
I664
tp1752
s(g126
g45
tp1753
(I143
I588
tp1754
s(g96
g199
tp1755
(I600
I600
tp1756
s(g93
g17
tp1757
(I204
I199
tp1758
s(g20
g84
tp1759
(I600
I600
tp1760
s(g96
g73
tp1761
(I600
I600
tp1762
s(g154
g39
tp1763
(I600
I600
tp1764
s(g63
g45
tp1765
(I600
I600
tp1766
s(g28
g108
tp1767
(I600
I600
tp1768
s(g97
g51
tp1769
(I0
I1000
tp1770
s(g290
g57
tp1771
(I466
I466
tp1772
s(g165
g115
tp1773
(I600
I600
tp1774
s(g28
g24
tp1775
(I600
I600
tp1776
s(g17
g87
tp1777
(I0
I1000
tp1778
s(g93
g141
tp1779
(I204
I199
tp1780
s(g20
g69
tp1781
(I0
I1000
tp1782
s(g216
g25
tp1783
(I0
I1000
tp1784
s(g42
g64
tp1785
(I600
I600
tp1786
s(g36
g60
tp1787
(I600
I600
tp1788
s(g10
g87
tp1789
(I0
I1000
tp1790
s(g93
g154
tp1791
(I204
I199
tp1792
s(g64
g144
tp1793
(I600
I600
tp1794
s(g138
g84
tp1795
(I600
I600
tp1796
s(g28
g144
tp1797
(I600
I600
tp1798
s(g141
g57
tp1799
(I600
I600
tp1800
s(g42
g69
tp1801
(I0
I1000
tp1802
s(g16
g90
tp1803
(I450
I450
tp1804
s(g33
g69
tp1805
(I0
I1000
tp1806
s(g36
g170
tp1807
(I600
I600
tp1808
s(g17
g90
tp1809
(I903
I78
tp1810
s(g10
g21
tp1811
(I0
I1000
tp1812
s(g20
g57
tp1813
(I600
I600
tp1814
s(g97
g141
tp1815
(I600
I600
tp1816
s(g54
g72
tp1817
(I600
I600
tp1818
s(g147
g45
tp1819
(I600
I600
tp1820
s(g126
g60
tp1821
(I503
I498
tp1822
s(g144
g72
tp1823
(I600
I600
tp1824
s(g247
g21
tp1825
(I0
I1000
tp1826
s(g28
g57
tp1827
(I600
I600
tp1828
s(g144
g154
tp1829
(I600
I600
tp1830
s(g54
g290
tp1831
(I471
I571
tp1832
s(g154
g133
tp1833
(I600
I600
tp1834
s(g84
g24
tp1835
(I600
I600
tp1836
s(g13
g13
tp1837
(I600
I600
tp1838
s(g97
g133
tp1839
(I600
I600
tp1840
s(g36
g199
tp1841
(I600
I600
tp1842
s(g165
g48
tp1843
(I592
I597
tp1844
s(g138
g10
tp1845
(I600
I600
tp1846
s(g63
g51
tp1847
(I0
I1000
tp1848
s(g28
g39
tp1849
(I600
I600
tp1850
s(g20
g24
tp1851
(I600
I600
tp1852
s(g199
g84
tp1853
(I600
I600
tp1854
s(g63
g24
tp1855
(I600
I600
tp1856
s(g29
g25
tp1857
(I0
I1000
tp1858
s(g17
g48
tp1859
(I602
I127
tp1860
s(g126
g63
tp1861
(I800
I300
tp1862
s(g147
g216
tp1863
(I600
I600
tp1864
s(g96
g48
tp1865
(I6
I996
tp1866
s(g29
g133
tp1867
(I749
I369
tp1868
s(g10
g90
tp1869
(I727
I222
tp1870
s(g93
g199
tp1871
(I252
I187
tp1872
s(g147
g33
tp1873
(I703
I393
tp1874
s(g96
g17
tp1875
(I600
I600
tp1876
s(g36
g64
tp1877
(I600
I600
tp1878
s(g96
g81
tp1879
(I600
I600
tp1880
s(g28
g87
tp1881
(I0
I1000
tp1882
s(g32
g32
tp1883
(I200
I200
tp1884
s(g42
g20
tp1885
(I600
I600
tp1886
s(g78
g25
tp1887
(I0
I1000
tp1888
s(g84
g87
tp1889
(I0
I1000
tp1890
s(g73
g13
tp1891
(I600
I600
tp1892
s(g84
g115
tp1893
(I600
I600
tp1894
s(g93
g63
tp1895
(I204
I199
tp1896
s(g126
g78
tp1897
(I100
I600
tp1898
s(g96
g141
tp1899
(I600
I600
tp1900
s(g133
g51
tp1901
(I0
I1000
tp1902
s(g81
g24
tp1903
(I600
I600
tp1904
s(g16
g144
tp1905
(I600
I600
tp1906
s(g17
g247
tp1907
(I811
I231
tp1908
s(g13
g25
tp1909
(I0
I1000
tp1910
s(g73
g33
tp1911
(I751
I346
tp1912
s(g290
g69
tp1913
(I0
I1000
tp1914
s(g247
g33
tp1915
(I3
I998
tp1916
s(g32
g13
tp1917
(I5
I995
tp1918
s(g72
g216
tp1919
(I600
I600
tp1920
s(g16
g115
tp1921
(I600
I600
tp1922
s(g96
g13
tp1923
(I600
I600
tp1924
s(g72
g78
tp1925
(I771
I116
tp1926
s(g29
g33
tp1927
(I304
I794
tp1928
s(g42
g138
tp1929
(I600
I600
tp1930
s(g16
g78
tp1931
(I364
I369
tp1932
s(g126
g25
tp1933
(I0
I1000
tp1934
s(g144
g115
tp1935
(I600
I600
tp1936
s(g126
g170
tp1937
(I800
I300
tp1938
s(g64
g17
tp1939
(I600
I600
tp1940
s(g60
g81
tp1941
(I600
I600
tp1942
s(g108
g154
tp1943
(I600
I600
tp1944
s(g28
g17
tp1945
(I600
I600
tp1946
s(g144
g144
tp1947
(I600
I600
tp1948
s(g199
g25
tp1949
(I0
I1000
tp1950
s(g81
g10
tp1951
(I600
I600
tp1952
s(g84
g84
tp1953
(I600
I600
tp1954
s(g45
g247
tp1955
(I735
I330
tp1956
s(g108
g84
tp1957
(I600
I600
tp1958
s(g144
g138
tp1959
(I600
I600
tp1960
s(g78
g13
tp1961
(I600
I100
tp1962
s(g63
g170
tp1963
(I564
I549
tp1964
s(g45
g24
tp1965
(I600
I600
tp1966
s(g28
g154
tp1967
(I600
I600
tp1968
s(g199
g20
tp1969
(I600
I600
tp1970
s(g64
g13
tp1971
(I600
I600
tp1972
s(g28
g133
tp1973
(I600
I600
tp1974
s(g133
g69
tp1975
(I0
I1000
tp1976
s(g147
g64
tp1977
(I600
I600
tp1978
s(g144
g33
tp1979
(I989
I9
tp1980
s(g73
g154
tp1981
(I600
I600
tp1982
s(g16
g63
tp1983
(I600
I600
tp1984
s(g96
g84
tp1985
(I600
I600
tp1986
s(g36
g17
tp1987
(I600
I600
tp1988
s(g42
g32
tp1989
(I597
I602
tp1990
s(g16
g45
tp1991
(I600
I600
tp1992
s(g20
g39
tp1993
(I600
I600
tp1994
s(g147
g39
tp1995
(I600
I600
tp1996
s(g39
g21
tp1997
(I0
I1000
tp1998
s(g165
g81
tp1999
(I600
I600
tp2000
s(g28
g247
tp2001
(I9
I994
tp2002
s(g126
g20
tp2003
(I128
I588
tp2004
s(g97
g13
tp2005
(I600
I600
tp2006
s(g138
g216
tp2007
(I600
I600
tp2008
s(g16
g170
tp2009
(I205
I205
tp2010
s(g96
g63
tp2011
(I600
I600
tp2012
s(g96
g24
tp2013
(I600
I600
tp2014
s(g165
g69
tp2015
(I0
I1000
tp2016
s(g9
g144
tp2017
(I18
I983
tp2018
s(g63
g138
tp2019
(I600
I600
tp2020
s(g141
g17
tp2021
(I600
I600
tp2022
s(g108
g138
tp2023
(I600
I600
tp2024
s(g81
g33
tp2025
(I419
I679
tp2026
s(g60
g51
tp2027
(I0
I1000
tp2028
s(g126
g28
tp2029
(I800
I300
tp2030
s(g45
g29
tp2031
(I716
I401
tp2032
s(g10
g51
tp2033
(I0
I1000
tp2034
s(g42
g28
tp2035
(I600
I600
tp2036
s(g9
g115
tp2037
(I33
I968
tp2038
s(g126
g165
tp2039
(I800
I300
tp2040
s(g290
g48
tp2041
(I532
I532
tp2042
s(g64
g32
tp2043
(I599
I599
tp2044
s(g81
g39
tp2045
(I600
I600
tp2046
s(g108
g141
tp2047
(I600
I600
tp2048
s(g20
g87
tp2049
(I0
I1000
tp2050
s(g141
g32
tp2051
(I599
I599
tp2052
s(g154
g17
tp2053
(I600
I600
tp2054
s(g60
g138
tp2055
(I600
I600
tp2056
s(g154
g25
tp2057
(I0
I1000
tp2058
s(g16
g97
tp2059
(I600
I600
tp2060
s(g133
g78
tp2061
(I310
I460
tp2062
s(g141
g45
tp2063
(I600
I600
tp2064
s(g108
g170
tp2065
(I600
I600
tp2066
s(g63
g78
tp2067
(I411
I476
tp2068
s(g147
g60
tp2069
(I600
I600
tp2070
s(g108
g48
tp2071
(I606
I141
tp2072
s(g247
g13
tp2073
(I600
I515
tp2074
s(g29
g247
tp2075
(I998
I3
tp2076
s(g32
g87
tp2077
(I0
I1000
tp2078
s(g199
g39
tp2079
(I600
I600
tp2080
s(g84
g133
tp2081
(I600
I600
tp2082
s(g81
g48
tp2083
(I559
I164
tp2084
s(g126
g64
tp2085
(I800
I300
tp2086
s(g170
g69
tp2087
(I0
I1000
tp2088
s(g87
g87
tp2089
(I0
I1000
tp2090
s(g97
g63
tp2091
(I600
I600
tp2092
s(g84
g154
tp2093
(I600
I600
tp2094
s(g199
g78
tp2095
(I723
I148
tp2096
s(g93
g84
tp2097
(I216
I196
tp2098
s(g93
g33
tp2099
(I1000
I0
tp2100
s(g147
g17
tp2101
(I600
I600
tp2102
s(g64
g138
tp2103
(I600
I600
tp2104
s(g165
g138
tp2105
(I600
I600
tp2106
s(g115
g78
tp2107
(I0
I1000
tp2108
s(g73
g25
tp2109
(I0
I1000
tp2110
s(g16
g57
tp2111
(I600
I600
tp2112
s(g115
g69
tp2113
(I0
I1000
tp2114
s(g170
g87
tp2115
(I0
I1000
tp2116
s(g165
g141
tp2117
(I600
I600
tp2118
s(g138
g24
tp2119
(I600
I600
tp2120
s(g108
g24
tp2121
(I600
I600
tp2122
s(g108
g63
tp2123
(I600
I600
tp2124
s(g63
g57
tp2125
(I600
I600
tp2126
s(g73
g133
tp2127
(I600
I600
tp2128
s(g97
g10
tp2129
(I600
I600
tp2130
s(g147
g24
tp2131
(I600
I600
tp2132
s(g28
g60
tp2133
(I600
I600
tp2134
s(g81
g25
tp2135
(I0
I1000
tp2136
s(g64
g290
tp2137
(I408
I653
tp2138
s(g96
g25
tp2139
(I0
I1000
tp2140
s(g96
g36
tp2141
(I600
I600
tp2142
s(g73
g78
tp2143
(I736
I151
tp2144
s(g32
g48
tp2145
(I602
I597
tp2146
s(g84
g39
tp2147
(I600
I600
tp2148
s(g45
g78
tp2149
(I736
I151
tp2150
s(g144
g10
tp2151
(I600
I600
tp2152
s(g9
g90
tp2153
(I0
I1000
tp2154
s(g154
g51
tp2155
(I0
I1000
tp2156
s(g81
g199
tp2157
(I600
I600
tp2158
s(g10
g10
tp2159
(I600
I600
tp2160
s(g42
g29
tp2161
(I3
I998
tp2162
s(g45
g133
tp2163
(I600
I600
tp2164
s(g115
g90
tp2165
(I0
I1000
tp2166
s(g84
g78
tp2167
(I968
I23
tp2168
s(g247
g216
tp2169
(I564
I564
tp2170
s(g108
g25
tp2171
(I0
I1000
tp2172
s(g9
g97
tp2173
(I23
I978
tp2174
s(g16
g32
tp2175
(I599
I599
tp2176
s(g60
g25
tp2177
(I0
I1000
tp2178
s(g60
g141
tp2179
(I600
I600
tp2180
s(g126
g81
tp2181
(I800
I300
tp2182
s(g154
g170
tp2183
(I600
I600
tp2184
s(g165
g21
tp2185
(I0
I1000
tp2186
s(g63
g133
tp2187
(I600
I600
tp2188
s(g60
g154
tp2189
(I600
I600
tp2190
s(g9
g51
tp2191
(I0
I1000
tp2192
s(g108
g32
tp2193
(I619
I569
tp2194
s(g108
g29
tp2195
(I729
I384
tp2196
s(g10
g57
tp2197
(I600
I600
tp2198
s(g247
g25
tp2199
(I0
I1000
tp2200
s(g36
g115
tp2201
(I600
I600
tp2202
s(g32
g90
tp2203
(I9
I989
tp2204
s(g24
g133
tp2205
(I600
I600
tp2206
s(g54
g154
tp2207
(I600
I600
tp2208
s(g60
g48
tp2209
(I597
I597
tp2210
s(g138
g138
tp2211
(I600
I600
tp2212
s(g93
g108
tp2213
(I204
I199
tp2214
s(g42
g147
tp2215
(I600
I600
tp2216
s(g93
g48
tp2217
(I600
I100
tp2218
s(g247
g69
tp2219
(I0
I1000
tp2220
s(g108
g13
tp2221
(I600
I600
tp2222
s(g36
g97
tp2223
(I600
I600
tp2224
s(g199
g24
tp2225
(I600
I600
tp2226
s(g28
g72
tp2227
(I600
I600
tp2228
s(g81
g17
tp2229
(I600
I600
tp2230
s(g87
g69
tp2231
(I600
I600
tp2232
s(g54
g51
tp2233
(I0
I1000
tp2234
s(g96
g10
tp2235
(I600
I600
tp2236
s(g97
g64
tp2237
(I600
I600
tp2238
s(g147
g32
tp2239
(I615
I575
tp2240
s(g42
g48
tp2241
(I6
I996
tp2242
s(g36
g29
tp2243
(I974
I29
tp2244
s(g72
g29
tp2245
(I746
I366
tp2246
s(g133
g57
tp2247
(I600
I600
tp2248
s(g93
g36
tp2249
(I600
I100
tp2250
s(g141
g13
tp2251
(I600
I600
tp2252
s(g28
g199
tp2253
(I600
I600
tp2254
s(g60
g63
tp2255
(I600
I600
tp2256
s(g165
g39
tp2257
(I600
I600
tp2258
s(g97
g39
tp2259
(I600
I600
tp2260
s(g126
g32
tp2261
(I797
I302
tp2262
s(g64
g64
tp2263
(I600
I600
tp2264
s(g39
g170
tp2265
(I261
I261
tp2266
s(g97
g90
tp2267
(I986
I11
tp2268
s(g290
g45
tp2269
(I280
I775
tp2270
s(g126
g29
tp2271
(I796
I301
tp2272
s(g97
g72
tp2273
(I600
I600
tp2274
s(g28
g90
tp2275
(I9
I989
tp2276
s(g247
g78
tp2277
(I0
I1000
tp2278
s(g90
g87
tp2279
(I0
I1000
tp2280
s(g42
g133
tp2281
(I600
I600
tp2282
s(g73
g216
tp2283
(I600
I600
tp2284
s(g144
g133
tp2285
(I600
I600
tp2286
s(g28
g69
tp2287
(I0
I1000
tp2288
s(g63
g33
tp2289
(I314
I784
tp2290
s(g126
g73
tp2291
(I143
I588
tp2292
s(g93
g97
tp2293
(I208
I198
tp2294
s(g64
g216
tp2295
(I600
I600
tp2296
s(g115
g247
tp2297
(I965
I35
tp2298
s(g16
g51
tp2299
(I0
I1000
tp2300
s(g42
g141
tp2301
(I600
I600
tp2302
s(g290
g78
tp2303
(I0
I1000
tp2304
s(g69
g69
tp2305
(I0
I1000
tp2306
s(g42
g247
tp2307
(I9
I994
tp2308
s(g36
g24
tp2309
(I600
I600
tp2310
s(g170
g57
tp2311
(I600
I600
tp2312
s(g17
g170
tp2313
(I600
I600
tp2314
s(g126
g247
tp2315
(I800
I300
tp2316
s(g60
g84
tp2317
(I600
I600
tp2318
s(g81
g57
tp2319
(I600
I600
tp2320
s(g147
g154
tp2321
(I600
I600
tp2322
s(g147
g84
tp2323
(I600
I600
tp2324
s(g32
g21
tp2325
(I1
I996
tp2326
s(g96
g108
tp2327
(I600
I600
tp2328
s(g63
g39
tp2329
(I600
I600
tp2330
s(g9
g63
tp2331
(I593
I593
tp2332
s(g96
g64
tp2333
(I600
I600
tp2334
s(g64
g54
tp2335
(I600
I600
tp2336
s(g96
g138
tp2337
(I600
I600
tp2338
s(g73
g247
tp2339
(I735
I330
tp2340
s(g42
g73
tp2341
(I600
I600
tp2342
s(g36
g20
tp2343
(I600
I600
tp2344
s(g36
g33
tp2345
(I978
I23
tp2346
s(g54
g87
tp2347
(I0
I1000
tp2348
s(g147
g21
tp2349
(I0
I1000
tp2350
s(g165
g247
tp2351
(I338
I718
tp2352
s(g28
g28
tp2353
(I600
I600
tp2354
s(g33
g216
tp2355
(I500
I500
tp2356
s(g165
g57
tp2357
(I600
I600
tp2358
s(g20
g33
tp2359
(I926
I86
tp2360
s(g64
g141
tp2361
(I600
I600
tp2362
s(g93
g24
tp2363
(I208
I198
tp2364
s(g73
g73
tp2365
(I600
I600
tp2366
s(g141
g73
tp2367
(I600
I600
tp2368
s(g144
g84
tp2369
(I600
I600
tp2370
s(g126
g290
tp2371
(I664
I334
tp2372
s(g42
g84
tp2373
(I600
I600
tp2374
s(g138
g73
tp2375
(I600
I600
tp2376
s(g144
g78
tp2377
(I983
I8
tp2378
s(g60
g24
tp2379
(I600
I600
tp2380
s(g42
g72
tp2381
(I600
I600
tp2382
s(g97
g20
tp2383
(I600
I600
tp2384
s(g141
g170
tp2385
(I572
I482
tp2386
s(g60
g54
tp2387
(I600
I600
tp2388
s(g73
g170
tp2389
(I600
I600
tp2390
s(g108
g115
tp2391
(I600
I600
tp2392
s(g97
g115
tp2393
(I600
I600
tp2394
s(g90
g57
tp2395
(I400
I400
tp2396
s(g290
g72
tp2397
(I244
I814
tp2398
s(g24
g115
tp2399
(I600
I600
tp2400
s(g72
g57
tp2401
(I600
I600
tp2402
s(g28
g115
tp2403
(I600
I600
tp2404
s(g64
g69
tp2405
(I0
I1000
tp2406
s(g36
g45
tp2407
(I600
I600
tp2408
s(g42
g42
tp2409
(I600
I600
tp2410
s(g138
g13
tp2411
(I600
I600
tp2412
s(g126
g42
tp2413
(I114
I594
tp2414
s(g54
g81
tp2415
(I600
I600
tp2416
s(g63
g290
tp2417
(I422
I627
tp2418
s(g97
g247
tp2419
(I980
I20
tp2420
s(g24
g154
tp2421
(I600
I600
tp2422
s(g28
g21
tp2423
(I0
I1000
tp2424
s(g147
g10
tp2425
(I600
I600
tp2426
s(g97
g138
tp2427
(I600
I600
tp2428
s(g9
g72
tp2429
(I540
I635
tp2430
s(g20
g154
tp2431
(I600
I600
tp2432
s(g93
g32
tp2433
(I200
I200
tp2434
s(g290
g199
tp2435
(I268
I788
tp2436
s(g29
g69
tp2437
(I0
I1000
tp2438
s(g24
g29
tp2439
(I414
I704
tp2440
s(g39
g57
tp2441
(I600
I600
tp2442
s(g97
g69
tp2443
(I0
I1000
tp2444
s(g17
g17
tp2445
(I600
I600
tp2446
s(g133
g87
tp2447
(I0
I1000
tp2448
s(g165
g32
tp2449
(I599
I599
tp2450
s(g93
g42
tp2451
(I1000
I0
tp2452
s(g147
g48
tp2453
(I595
I110
tp2454
s(g48
g216
tp2455
(I596
I596
tp2456
s(g138
g45
tp2457
(I600
I600
tp2458
s(g165
g290
tp2459
(I367
I697
tp2460
s(g64
g21
tp2461
(I0
I1000
tp2462
s(g141
g144
tp2463
(I600
I600
tp2464
s(g96
g33
tp2465
(I3
I998
tp2466
s(g170
g21
tp2467
(I0
I1000
tp2468
s(g81
g247
tp2469
(I447
I577
tp2470
s(g10
g73
tp2471
(I600
I600
tp2472
s(g42
g81
tp2473
(I600
I600
tp2474
s(g36
g39
tp2475
(I600
I600
tp2476
s(g138
g48
tp2477
(I597
I567
tp2478
s(g60
g87
tp2479
(I0
I1000
tp2480
s(g126
g199
tp2481
(I155
I585
tp2482
s(g87
g25
tp2483
(I600
I600
tp2484
s(g81
g154
tp2485
(I600
I600
tp2486
s(g29
g216
tp2487
(I520
I520
tp2488
s(g133
g170
tp2489
(I546
I551
tp2490
s(g84
g25
tp2491
(I0
I1000
tp2492
s(g81
g133
tp2493
(I600
I600
tp2494
s(g24
g17
tp2495
(I600
I600
tp2496
s(g126
g144
tp2497
(I107
I597
tp2498
s(g16
g290
tp2499
(I532
I532
tp2500
s(g170
g216
tp2501
(I600
I600
tp2502
s(g29
g51
tp2503
(I0
I1000
tp2504
s(g165
g20
tp2505
(I600
I600
tp2506
s(g165
g199
tp2507
(I600
I600
tp2508
s(g16
g21
tp2509
(I0
I1000
tp2510
s(g45
g84
tp2511
(I600
I600
tp2512
s(g42
g45
tp2513
(I600
I600
tp2514
s(g36
g78
tp2515
(I100
I600
tp2516
s(g78
g170
tp2517
(I866
I126
tp2518
s(g54
g170
tp2519
(I269
I279
tp2520
s(g64
g29
tp2521
(I374
I744
tp2522
s(g108
g90
tp2523
(I826
I141
tp2524
s(g290
g216
tp2525
(I466
I466
tp2526
s(g42
g25
tp2527
(I0
I1000
tp2528
s(g20
g10
tp2529
(I600
I600
tp2530
s(g24
g90
tp2531
(I762
I207
tp2532
s(g10
g78
tp2533
(I626
I216
tp2534
s(g42
g216
tp2535
(I600
I600
tp2536
s(g60
g39
tp2537
(I600
I600
tp2538
s(g72
g17
tp2539
(I600
I600
tp2540
s(g154
g69
tp2541
(I0
I1000
tp2542
s(g290
g144
tp2543
(I9
I989
tp2544
s(g115
g39
tp2545
(I600
I600
tp2546
s(g17
g216
tp2547
(I600
I600
tp2548
s(g72
g39
tp2549
(I600
I600
tp2550
s(g126
g133
tp2551
(I800
I300
tp2552
s(g54
g73
tp2553
(I600
I600
tp2554
s(g165
g84
tp2555
(I600
I600
tp2556
s(g29
g87
tp2557
(I0
I1000
tp2558
s(g133
g13
tp2559
(I600
I600
tp2560
s(g54
g115
tp2561
(I600
I600
tp2562
s(g133
g33
tp2563
(I309
I789
tp2564
s(g138
g57
tp2565
(I600
I600
tp2566
s(g81
g45
tp2567
(I600
I600
tp2568
s(g147
g72
tp2569
(I600
I600
tp2570
s(g165
g25
tp2571
(I0
I1000
tp2572
s(g93
g133
tp2573
(I208
I198
tp2574
s(g48
g69
tp2575
(I0
I1000
tp2576
s(g108
g72
tp2577
(I600
I600
tp2578
s(g108
g78
tp2579
(I698
I173
tp2580
s(g84
g10
tp2581
(I600
I600
tp2582
s(g20
g73
tp2583
(I600
I600
tp2584
s(g32
g170
tp2585
(I602
I597
tp2586
s(g165
g17
tp2587
(I600
I600
tp2588
s(g72
g10
tp2589
(I600
I600
tp2590
s(g247
g170
tp2591
(I138
I863
tp2592
s(g147
g78
tp2593
(I907
I52
tp2594
s(g24
g48
tp2595
(I593
I578
tp2596
s(g141
g84
tp2597
(I600
I600
tp2598
s(g84
g33
tp2599
(I959
I39
tp2600
s(g93
g25
tp2601
(I0
I1000
tp2602
s(g108
g144
tp2603
(I600
I600
tp2604
s(g72
g72
tp2605
(I600
I600
tp2606
s(g45
g69
tp2607
(I0
I1000
tp2608
ssb.