ccopy_reg
_reconstructor
p1
(caxelrod.tournament_manager
DeterministicCache
p2
c__builtin__
object
p3
NtRp4
(dp5
S'turns'
p6
I200
sS'cache'
p7
(dp8
(caxelrod.strategies.punisher
Punisher
p9
caxelrod.strategies.titfortat
TitFor2Tats
p10
tp11
(I600
I600
tp12
s(caxelrod.strategies.punisher
InversePunisher
p13
caxelrod.strategies.hunter
MathConstantHunter
p14
tp15
(I600
I600
tp16
s(caxelrod.strategies.mathematicalconstants
Golden
p17
caxelrod.strategies.retaliate
LimitedRetaliate2
p18
tp19
(I268
I788
tp20
s(caxelrod.strategies.gobymajority
GoByMajority20
p21
caxelrod.strategies.titfortat
TwoTitsForTat
p22
tp23
(I600
I600
tp24
s(g22
caxelrod.strategies.memoryone
WinStayLoseShift
p25
tp26
(I600
I600
tp27
s(caxelrod.strategies.gobymajority
GoByMajority5
p28
caxelrod.strategies.titfortat
SuspiciousTitForTat
p29
tp30
(I500
I500
tp31
s(g14
caxelrod.strategies.mindcontrol
MindWarper
p32
tp33
(I0
I1000
tp34
s(caxelrod.strategies.retaliate
Retaliate
p35
caxelrod.strategies.mindreader
MindReader
p36
tp37
(I0
I1000
tp38
s(g9
g35
tp39
(I600
I600
tp40
s(caxelrod.strategies.hunter
CooperatorHunter
p41
caxelrod.strategies.mindcontrol
MindBender
p42
tp43
(I0
I1000
tp44
s(g18
g25
tp45
(I600
I600
tp46
s(caxelrod.strategies.titfortat
Bully
p47
caxelrod.strategies.gobymajority
GoByMajority
p48
tp49
(I468
I463
tp50
s(g29
caxelrod.strategies.mathematicalconstants
e
p51
tp52
(I552
I547
tp53
s(g28
g36
tp54
(I0
I1000
tp55
s(caxelrod.strategies.defector
Defector
p56
caxelrod.strategies.retaliate
Retaliate2
p57
tp58
(I204
I199
tp59
s(g41
caxelrod.strategies.oncebitten
FoolMeOnce
p60
tp61
(I23
I978
tp62
s(caxelrod.strategies.appeaser
Appeaser
p63
caxelrod.strategies.grudger
Grudger
p64
tp65
(I600
I600
tp66
s(g35
g35
tp67
(I600
I600
tp68
s(caxelrod.strategies.hunter
DefectorHunter
p69
g22
tp70
(I600
I600
tp71
s(g64
g18
tp72
(I600
I600
tp73
s(g35
caxelrod.strategies.geller
GellerCooperator
p74
tp75
(I600
I600
tp76
s(caxelrod.strategies.grudger
ForgetfulGrudger
p77
caxelrod.strategies.defector
TrickyDefector
p78
tp79
(I698
I173
tp80
s(caxelrod.strategies.titfortat
TitForTat
p81
g35
tp82
(I600
I600
tp83
s(caxelrod.strategies.hunter
AlternatorHunter
p84
caxelrod.strategies.gobymajority
GoByMajority10
p85
tp86
(I600
I600
tp87
s(caxelrod.strategies.forgiver
Forgiver
p88
caxelrod.strategies.forgiver
ForgivingTitForTat
p89
tp90
(I600
I600
tp91
s(caxelrod.strategies.retaliate
Retaliate3
p92
caxelrod.strategies.mindreader
ProtectedMindReader
p93
tp94
(I0
I1000
tp95
s(g69
g85
tp96
(I600
I600
tp97
s(g41
g21
tp98
(I602
I587
tp99
s(caxelrod.strategies.titfortat
AntiTitForTat
p100
g10
tp101
(I560
I360
tp102
s(g9
caxelrod.strategies.hunter
RandomHunter
p103
tp104
(I600
I600
tp105
s(g21
g28
tp106
(I600
I600
tp107
s(g64
g93
tp108
(I0
I1000
tp109
s(caxelrod.strategies.mathematicalconstants
Pi
p110
g74
tp111
(I520
I520
tp112
s(g47
g74
tp113
(I400
I400
tp114
s(g89
g10
tp115
(I600
I600
tp116
s(g81
g41
tp117
(I597
I597
tp118
s(g41
g22
tp119
(I594
I599
tp120
s(g69
caxelrod.strategies.geller
GellerDefector
p121
tp122
(I600
I600
tp123
s(caxelrod.strategies.gobymajority
GoByMajority40
p124
caxelrod.strategies.retaliate
LimitedRetaliate
p125
tp126
(I600
I600
tp127
s(g48
caxelrod.strategies.mindcontrol
MindController
p128
tp129
(I0
I1000
tp130
s(g56
g64
tp131
(I204
I199
tp132
s(g81
g88
tp133
(I600
I600
tp134
s(g51
g42
tp135
(I0
I1000
tp136
s(g41
g85
tp137
(I593
I593
tp138
s(g17
g32
tp139
(I0
I1000
tp140
s(g100
caxelrod.strategies.oncebitten
OnceBitten
p141
tp142
(I210
I760
tp143
s(g13
g29
tp144
(I203
I203
tp145
s(g84
g60
tp146
(I600
I600
tp147
s(g48
g28
tp148
(I600
I600
tp149
s(g110
g110
tp150
(I520
I520
tp151
s(g35
g51
tp152
(I751
I346
tp153
s(g60
g13
tp154
(I600
I600
tp155
s(g48
g17
tp156
(I367
I697
tp157
s(g93
g93
tp158
(I0
I1000
tp159
s(g88
caxelrod.strategies.grudger
OppositeGrudger
p160
tp161
(I615
I575
tp162
s(g81
caxelrod.strategies.hunter
MetaHunter
p163
tp164
(I600
I600
tp165
s(g89
caxelrod.strategies.grumpy
Grumpy
p166
tp167
(I600
I600
tp168
s(caxelrod.strategies.alternator
Alternator
p169
g160
tp170
(I797
I302
tp171
s(g110
g29
tp172
(I557
I562
tp173
s(g124
g128
tp174
(I0
I1000
tp175
s(caxelrod.strategies.retaliate
LimitedRetaliate3
p176
g141
tp177
(I600
I600
tp178
s(g110
g35
tp179
(I401
I716
tp180
s(g41
g13
tp181
(I552
I627
tp182
s(caxelrod.strategies.cooperator
Cooperator
p183
g69
tp184
(I600
I600
tp185
s(g13
g42
tp186
(I0
I1000
tp187
s(g88
caxelrod.strategies.cooperator
TrickyCooperator
p188
tp189
(I781
I261
tp190
s(g18
g141
tp191
(I600
I600
tp192
s(g63
g69
tp193
(I600
I600
tp194
s(g100
g41
tp195
(I998
I3
tp196
s(g51
g51
tp197
(I500
I500
tp198
s(g63
g28
tp199
(I600
I600
tp200
s(g56
g85
tp201
(I204
I199
tp202
s(g81
g10
tp203
(I600
I600
tp204
s(g10
g78
tp205
(I310
I460
tp206
s(g169
g85
tp207
(I800
I300
tp208
s(g21
g92
tp209
(I600
I600
tp210
s(g47
g88
tp211
(I87
I892
tp212
s(g88
g176
tp213
(I600
I600
tp214
s(g56
g188
tp215
(I1000
I0
tp216
s(g176
g42
tp217
(I0
I1000
tp218
s(g35
g93
tp219
(I0
I1000
tp220
s(g41
g29
tp221
(I597
I602
tp222
s(g125
g176
tp223
(I600
I600
tp224
s(g41
g35
tp225
(I570
I615
tp226
s(caxelrod.strategies.darwin
Darwin
p227
g42
tp228
(I0
I1000
tp229
s(g56
g51
tp230
(I1000
I0
tp231
s(g81
g78
tp232
(I364
I369
tp233
s(g124
g64
tp234
(I600
I600
tp235
s(g56
g160
tp236
(I200
I200
tp237
s(g183
g85
tp238
(I600
I600
tp239
s(g14
g36
tp240
(I0
I1000
tp241
s(g14
g141
tp242
(I600
I600
tp243
s(g110
caxelrod.strategies.titfortat
SneakyTitForTat
p244
tp245
(I559
I559
tp246
s(g244
g121
tp247
(I596
I596
tp248
s(g63
g188
tp249
(I515
I600
tp250
s(g9
g25
tp251
(I600
I600
tp252
s(g81
g29
tp253
(I500
I500
tp254
s(g141
g244
tp255
(I593
I578
tp256
s(g17
g163
tp257
(I39
I959
tp258
s(g183
g103
tp259
(I600
I600
tp260
s(g89
g57
tp261
(I600
I600
tp262
s(g63
g51
tp263
(I978
I23
tp264
s(g41
g92
tp265
(I540
I635
tp266
s(g60
g35
tp267
(I600
I600
tp268
s(g176
g110
tp269
(I746
I366
tp270
s(g100
g22
tp271
(I360
I560
tp272
s(g9
g188
tp273
(I592
I507
tp274
s(g63
g47
tp275
(I265
I600
tp276
s(g89
g48
tp277
(I600
I600
tp278
s(g88
g78
tp279
(I907
I52
tp280
s(g85
g166
tp281
(I600
I600
tp282
s(g160
g121
tp283
(I200
I200
tp284
s(g103
g25
tp285
(I600
I600
tp286
s(g48
g13
tp287
(I600
I600
tp288
s(g21
g141
tp289
(I600
I600
tp290
s(g22
g93
tp291
(I0
I1000
tp292
s(g81
g176
tp293
(I600
I600
tp294
s(g183
g17
tp295
(I3
I998
tp296
s(g176
g176
tp297
(I600
I600
tp298
s(g63
g17
tp299
(I967
I32
tp300
s(g17
g9
tp301
(I376
I656
tp302
s(g169
g227
tp303
(I800
I300
tp304
s(g64
g29
tp305
(I203
I203
tp306
s(g92
g42
tp307
(I0
I1000
tp308
s(g81
g188
tp309
(I550
I555
tp310
s(g89
g93
tp311
(I0
I1000
tp312
s(g25
g32
tp313
(I0
I1000
tp314
s(g42
g32
tp315
(I1000
I0
tp316
s(g25
g36
tp317
(I0
I1000
tp318
s(g88
g227
tp319
(I600
I600
tp320
s(g56
g141
tp321
(I208
I198
tp322
s(g169
g141
tp323
(I800
I300
tp324
s(g77
g110
tp325
(I729
I384
tp326
s(g160
g29
tp327
(I200
I200
tp328
s(g14
g78
tp329
(I0
I1000
tp330
s(g17
g103
tp331
(I39
I959
tp332
s(g169
g89
tp333
(I503
I498
tp334
s(g166
g103
tp335
(I600
I600
tp336
s(g88
g35
tp337
(I600
I600
tp338
s(g69
g9
tp339
(I600
I600
tp340
s(g9
g244
tp341
(I617
I172
tp342
s(g42
g36
tp343
(I1000
I0
tp344
s(g84
g160
tp345
(I597
I602
tp346
s(g14
g14
tp347
(I600
I600
tp348
s(g84
g78
tp349
(I0
I1000
tp350
s(g183
g141
tp351
(I600
I600
tp352
s(g81
g48
tp353
(I600
I600
tp354
s(g110
g103
tp355
(I39
I959
tp356
s(g60
g74
tp357
(I600
I600
tp358
s(g63
g121
tp359
(I600
I600
tp360
s(g48
g93
tp361
(I0
I1000
tp362
s(g125
g51
tp363
(I751
I346
tp364
s(g85
g92
tp365
(I600
I600
tp366
s(g188
g51
tp367
(I3
I998
tp368
s(g18
g78
tp369
(I723
I148
tp370
s(g141
g74
tp371
(I600
I600
tp372
s(g125
g125
tp373
(I600
I600
tp374
s(g85
g163
tp375
(I600
I600
tp376
s(g78
g93
tp377
(I0
I1000
tp378
s(g103
g32
tp379
(I0
I1000
tp380
s(g84
g21
tp381
(I600
I600
tp382
s(g84
g227
tp383
(I591
I606
tp384
s(g85
g35
tp385
(I600
I600
tp386
s(g69
g21
tp387
(I600
I600
tp388
s(g160
g9
tp389
(I539
I639
tp390
s(g183
g48
tp391
(I600
I600
tp392
s(g163
g78
tp393
(I968
I23
tp394
s(g48
g9
tp395
(I600
I600
tp396
s(g48
g121
tp397
(I600
I600
tp398
s(g169
g47
tp399
(I397
I402
tp400
s(g176
g128
tp401
(I0
I1000
tp402
s(g60
g176
tp403
(I600
I600
tp404
s(g77
g64
tp405
(I600
I600
tp406
s(g57
g22
tp407
(I600
I600
tp408
s(g78
g51
tp409
(I1000
I0
tp410
s(g88
g51
tp411
(I703
I393
tp412
s(g77
g92
tp413
(I600
I600
tp414
s(g47
g9
tp415
(I222
I727
tp416
s(g84
g188
tp417
(I9
I994
tp418
s(g169
g36
tp419
(I0
I1000
tp420
s(g69
g69
tp421
(I600
I600
tp422
s(g81
g36
tp423
(I0
I1000
tp424
s(g21
g176
tp425
(I600
I600
tp426
s(g81
g57
tp427
(I600
I600
tp428
s(g69
g28
tp429
(I600
I600
tp430
s(g77
g160
tp431
(I619
I569
tp432
s(g56
g28
tp433
(I204
I199
tp434
s(g77
g51
tp435
(I755
I340
tp436
s(g110
g128
tp437
(I0
I1000
tp438
s(g124
g35
tp439
(I600
I600
tp440
s(g81
g84
tp441
(I600
I600
tp442
s(g89
g51
tp443
(I549
I549
tp444
s(g69
g166
tp445
(I600
I600
tp446
s(g89
g9
tp447
(I600
I600
tp448
s(g28
g64
tp449
(I600
I600
tp450
s(g41
g69
tp451
(I992
I12
tp452
s(g18
g188
tp453
(I757
I302
tp454
s(g60
g32
tp455
(I0
I1000
tp456
s(g77
g188
tp457
(I735
I330
tp458
s(g48
g64
tp459
(I600
I600
tp460
s(g41
g176
tp461
(I540
I635
tp462
s(g88
g14
tp463
(I600
I600
tp464
s(g85
g85
tp465
(I600
I600
tp466
s(g85
g29
tp467
(I592
I597
tp468
s(g13
g188
tp469
(I811
I231
tp470
s(g84
g48
tp471
(I600
I600
tp472
s(g89
g25
tp473
(I600
I600
tp474
s(g22
g51
tp475
(I631
I466
tp476
s(g183
g28
tp477
(I600
I600
tp478
s(g166
g13
tp479
(I600
I600
tp480
s(g84
g110
tp481
(I3
I998
tp482
s(g17
g10
tp483
(I695
I370
tp484
s(g14
g25
tp485
(I600
I600
tp486
s(g166
g244
tp487
(I559
I164
tp488
s(g166
g14
tp489
(I600
I600
tp490
s(g84
g244
tp491
(I6
I996
tp492
s(g85
g51
tp493
(I314
I784
tp494
s(g89
g21
tp495
(I600
I600
tp496
s(g89
g35
tp497
(I600
I600
tp498
s(g84
g13
tp499
(I600
I600
tp500
s(g13
g227
tp501
(I600
I600
tp502
s(g100
g47
tp503
(I0
I1000
tp504
s(g63
g32
tp505
(I0
I1000
tp506
s(g103
g128
tp507
(I0
I1000
tp508
s(g25
g93
tp509
(I0
I1000
tp510
s(g56
g227
tp511
(I208
I198
tp512
s(g81
g128
tp513
(I0
I1000
tp514
s(g42
g42
tp515
(I1000
I0
tp516
s(g69
g124
tp517
(I600
I600
tp518
s(g60
g227
tp519
(I600
I600
tp520
s(g81
g22
tp521
(I600
I600
tp522
s(g110
g188
tp523
(I998
I3
tp524
s(g17
g25
tp525
(I32
I967
tp526
s(g183
g78
tp527
(I0
I1000
tp528
s(g188
g128
tp529
(I0
I1000
tp530
s(g125
g128
tp531
(I0
I1000
tp532
s(g92
g22
tp533
(I600
I600
tp534
s(g21
g163
tp535
(I600
I600
tp536
s(g169
g10
tp537
(I800
I300
tp538
s(g183
g100
tp539
(I3
I998
tp540
s(g21
g121
tp541
(I600
I600
tp542
s(g89
g36
tp543
(I0
I1000
tp544
s(g10
g22
tp545
(I600
I600
tp546
s(g84
g57
tp547
(I600
I600
tp548
s(g77
g36
tp549
(I0
I1000
tp550
s(g21
g244
tp551
(I592
I597
tp552
s(g69
g88
tp553
(I600
I600
tp554
s(g36
g32
tp555
(I600
I600
tp556
s(g60
g88
tp557
(I600
I600
tp558
s(g183
g84
tp559
(I600
I600
tp560
s(g100
g18
tp561
(I117
I857
tp562
s(g84
g77
tp563
(I600
I600
tp564
s(g244
g36
tp565
(I0
I1000
tp566
s(g56
g78
tp567
(I200
I200
tp568
s(g100
g21
tp569
(I490
I440
tp570
s(g74
g42
tp571
(I1
I996
tp572
s(g81
g64
tp573
(I600
I600
tp574
s(g57
g10
tp575
(I600
I600
tp576
s(g18
g163
tp577
(I600
I600
tp578
s(g77
g57
tp579
(I600
I600
tp580
s(g56
g77
tp581
(I204
I199
tp582
s(g176
g74
tp583
(I600
I600
tp584
s(g63
g60
tp585
(I600
I600
tp586
s(g141
g160
tp587
(I597
I602
tp588
s(g169
g244
tp589
(I650
I400
tp590
s(g169
g29
tp591
(I500
I500
tp592
s(g9
g9
tp593
(I600
I600
tp594
s(g121
g121
tp595
(I200
I200
tp596
s(g124
g25
tp597
(I600
I600
tp598
s(g125
g35
tp599
(I600
I600
tp600
s(g163
g141
tp601
(I600
I600
tp602
s(g160
g103
tp603
(I26
I981
tp604
s(g69
g14
tp605
(I600
I600
tp606
s(g176
g78
tp607
(I771
I116
tp608
s(g18
g29
tp609
(I239
I239
tp610
s(g21
g29
tp611
(I587
I592
tp612
s(g125
g36
tp613
(I0
I1000
tp614
s(g17
g125
tp615
(I280
I775
tp616
s(g47
g29
tp617
(I450
I450
tp618
s(g163
g244
tp619
(I582
I132
tp620
s(g84
g128
tp621
(I0
I1000
tp622
s(g48
g18
tp623
(I600
I600
tp624
s(g22
g36
tp625
(I0
I1000
tp626
s(g64
g78
tp627
(I983
I8
tp628
s(g47
g92
tp629
(I78
I903
tp630
s(g47
g110
tp631
(I1000
I0
tp632
s(g63
g160
tp633
(I995
I5
tp634
s(g124
g17
tp635
(I400
I665
tp636
s(g244
g78
tp637
(I100
I600
tp638
s(g81
g141
tp639
(I600
I600
tp640
s(g100
g244
tp641
(I450
I450
tp642
s(g163
g35
tp643
(I600
I600
tp644
s(g60
g42
tp645
(I0
I1000
tp646
s(g60
g18
tp647
(I600
I600
tp648
s(g100
g88
tp649
(I90
I890
tp650
s(g125
g32
tp651
(I0
I1000
tp652
s(g47
g47
tp653
(I400
I400
tp654
s(g14
g29
tp655
(I243
I243
tp656
s(g77
g18
tp657
(I600
I600
tp658
s(g92
g74
tp659
(I600
I600
tp660
s(g47
g35
tp661
(I141
I826
tp662
s(g21
g13
tp663
(I600
I600
tp664
s(g125
g244
tp665
(I609
I144
tp666
s(g13
g22
tp667
(I600
I600
tp668
s(g125
g110
tp669
(I716
I401
tp670
s(g13
g92
tp671
(I600
I600
tp672
s(g48
g110
tp673
(I374
I744
tp674
s(g41
g18
tp675
(I561
I621
tp676
s(g141
g10
tp677
(I600
I600
tp678
s(g169
g18
tp679
(I155
I585
tp680
s(g85
g9
tp681
(I600
I600
tp682
s(g63
g48
tp683
(I600
I600
tp684
s(g69
g89
tp685
(I600
I600
tp686
s(g17
g42
tp687
(I0
I1000
tp688
s(g48
g42
tp689
(I0
I1000
tp690
s(g47
g128
tp691
(I0
I1000
tp692
s(g183
g47
tp693
(I0
I1000
tp694
s(g141
g110
tp695
(I414
I704
tp696
s(g100
g85
tp697
(I509
I429
tp698
s(g169
g35
tp699
(I143
I588
tp700
s(g47
g28
tp701
(I480
I470
tp702
s(g244
g32
tp703
(I0
I1000
tp704
s(g84
g100
tp705
(I3
I998
tp706
s(g13
g32
tp707
(I0
I1000
tp708
s(g10
g93
tp709
(I0
I1000
tp710
s(g17
g121
tp711
(I466
I466
tp712
s(g14
g10
tp713
(I600
I600
tp714
s(g176
g22
tp715
(I600
I600
tp716
s(g14
g74
tp717
(I600
I600
tp718
s(g166
g51
tp719
(I419
I679
tp720
s(g160
g160
tp721
(I200
I200
tp722
s(g188
g74
tp723
(I564
I564
tp724
s(g9
g36
tp725
(I0
I1000
tp726
s(g28
g14
tp727
(I600
I600
tp728
s(g125
g188
tp729
(I735
I330
tp730
s(g57
g121
tp731
(I600
I600
tp732
s(g89
g64
tp733
(I600
I600
tp734
s(g56
g32
tp735
(I0
I1000
tp736
s(g28
g160
tp737
(I599
I599
tp738
s(g48
g92
tp739
(I600
I600
tp740
s(g48
g22
tp741
(I600
I600
tp742
s(g81
g93
tp743
(I0
I1000
tp744
s(g41
g110
tp745
(I3
I998
tp746
s(g28
g92
tp747
(I600
I600
tp748
s(g84
g74
tp749
(I600
I600
tp750
s(g163
g188
tp751
(I965
I35
tp752
s(g41
g32
tp753
(I0
I1000
tp754
s(g60
g89
tp755
(I600
I600
tp756
s(g103
g93
tp757
(I0
I1000
tp758
s(g13
g125
tp759
(I600
I600
tp760
s(g18
g160
tp761
(I623
I563
tp762
s(g47
g51
tp763
(I1000
I0
tp764
s(g188
g227
tp765
(I98
I903
tp766
s(g125
g227
tp767
(I600
I600
tp768
s(g103
g35
tp769
(I600
I600
tp770
s(g63
g21
tp771
(I600
I600
tp772
s(g41
g141
tp773
(I572
I612
tp774
s(g227
g74
tp775
(I600
I600
tp776
s(g183
g21
tp777
(I600
I600
tp778
s(g183
g32
tp779
(I0
I1000
tp780
s(g77
g9
tp781
(I600
I600
tp782
s(g163
g227
tp783
(I600
I600
tp784
s(g100
g42
tp785
(I0
I1000
tp786
s(g48
g125
tp787
(I600
I600
tp788
s(g169
g78
tp789
(I100
I600
tp790
s(g47
g57
tp791
(I114
I859
tp792
s(g47
g17
tp793
(I1000
I0
tp794
s(g77
g124
tp795
(I600
I600
tp796
s(g84
g51
tp797
(I3
I998
tp798
s(g163
g9
tp799
(I600
I600
tp800
s(g60
g124
tp801
(I600
I600
tp802
s(g121
g32
tp803
(I0
I1000
tp804
s(g41
g36
tp805
(I0
I1000
tp806
s(g183
g64
tp807
(I600
I600
tp808
s(g63
g77
tp809
(I600
I600
tp810
s(g125
g78
tp811
(I736
I151
tp812
s(g89
g188
tp813
(I550
I555
tp814
s(g14
g51
tp815
(I926
I86
tp816
s(g28
g141
tp817
(I600
I600
tp818
s(g176
g25
tp819
(I600
I600
tp820
s(g47
g32
tp821
(I0
I1000
tp822
s(g29
g32
tp823
(I0
I1000
tp824
s(g89
g160
tp825
(I599
I599
tp826
s(g81
g32
tp827
(I0
I1000
tp828
s(g64
g244
tp829
(I595
I110
tp830
s(g81
g100
tp831
(I450
I450
tp832
s(g35
g32
tp833
(I0
I1000
tp834
s(g48
g166
tp835
(I600
I600
tp836
s(g77
g29
tp837
(I203
I203
tp838
s(g14
g93
tp839
(I0
I1000
tp840
s(g10
g74
tp841
(I600
I600
tp842
s(g64
g110
tp843
(I989
I9
tp844
s(g169
g60
tp845
(I114
I594
tp846
s(g77
g77
tp847
(I600
I600
tp848
s(g100
g74
tp849
(I400
I400
tp850
s(g183
g92
tp851
(I600
I600
tp852
s(g17
g13
tp853
(I245
I815
tp854
s(g84
g93
tp855
(I0
I1000
tp856
s(g183
g88
tp857
(I600
I600
tp858
s(g17
g244
tp859
(I532
I532
tp860
s(g56
g69
tp861
(I216
I196
tp862
s(g81
g74
tp863
(I600
I600
tp864
s(g85
g160
tp865
(I599
I599
tp866
s(g103
g36
tp867
(I0
I1000
tp868
s(g56
g36
tp869
(I0
I1000
tp870
s(g166
g110
tp871
(I479
I639
tp872
s(g64
g32
tp873
(I0
I1000
tp874
s(g89
g42
tp875
(I0
I1000
tp876
s(g176
g103
tp877
(I600
I600
tp878
s(g166
g78
tp879
(I524
I444
tp880
s(g57
g74
tp881
(I600
I600
tp882
s(g169
g124
tp883
(I800
I300
tp884
s(g85
g36
tp885
(I0
I1000
tp886
s(g77
g42
tp887
(I0
I1000
tp888
s(g169
g51
tp889
(I796
I301
tp890
s(g74
g93
tp891
(I0
I1000
tp892
s(g14
g35
tp893
(I600
I600
tp894
s(g28
g42
tp895
(I0
I1000
tp896
s(g125
g103
tp897
(I600
I600
tp898
s(g51
g36
tp899
(I0
I1000
tp900
s(g21
g125
tp901
(I600
I600
tp902
s(g47
g14
tp903
(I1000
I0
tp904
s(g100
g227
tp905
(I998
I3
tp906
s(g183
g160
tp907
(I597
I602
tp908
s(g110
g9
tp909
(I456
I661
tp910
s(g169
g74
tp911
(I400
I400
tp912
s(g92
g25
tp913
(I600
I600
tp914
s(g41
g163
tp915
(I33
I968
tp916
s(g63
g9
tp917
(I600
I600
tp918
s(g41
g121
tp919
(I598
I598
tp920
s(g69
g103
tp921
(I600
I600
tp922
s(g88
g21
tp923
(I600
I600
tp924
s(g17
g92
tp925
(I244
I814
tp926
s(g81
g25
tp927
(I600
I600
tp928
s(g21
g17
tp929
(I408
I653
tp930
s(g56
g103
tp931
(I1000
I0
tp932
s(g166
g92
tp933
(I600
I600
tp934
s(g176
g14
tp935
(I600
I600
tp936
s(g84
g176
tp937
(I600
I600
tp938
s(g81
g124
tp939
(I600
I600
tp940
s(g160
g92
tp941
(I542
I637
tp942
s(g77
g48
tp943
(I600
I600
tp944
s(g160
g35
tp945
(I572
I617
tp946
s(g13
g244
tp947
(I597
I567
tp948
s(g57
g32
tp949
(I0
I1000
tp950
s(g169
g42
tp951
(I0
I1000
tp952
s(g41
g103
tp953
(I33
I968
tp954
s(g85
g17
tp955
(I422
I627
tp956
s(g183
g110
tp957
(I3
I998
tp958
s(g244
g10
tp959
(I599
I594
tp960
s(g85
g28
tp961
(I600
I600
tp962
s(g63
g110
tp963
(I974
I29
tp964
s(g41
g9
tp965
(I588
I603
tp966
s(g64
g92
tp967
(I600
I600
tp968
s(g60
g64
tp969
(I600
I600
tp970
s(g56
g17
tp971
(I1000
I0
tp972
s(g188
g32
tp973
(I0
I1000
tp974
s(g63
g78
tp975
(I100
I600
tp976
s(g124
g10
tp977
(I600
I600
tp978
s(g77
g89
tp979
(I600
I600
tp980
s(g88
g166
tp981
(I600
I600
tp982
s(g81
g17
tp983
(I532
I532
tp984
s(g47
g69
tp985
(I989
I9
tp986
s(g85
g128
tp987
(I0
I1000
tp988
s(g88
g32
tp989
(I0
I1000
tp990
s(g74
g121
tp991
(I1000
I0
tp992
s(g32
g93
tp993
(I600
I600
tp994
s(g60
g14
tp995
(I600
I600
tp996
s(g56
g60
tp997
(I208
I198
tp998
s(g125
g42
tp999
(I0
I1000
tp1000
s(g166
g160
tp1001
(I597
I602
tp1002
s(g63
g103
tp1003
(I600
I600
tp1004
s(g85
g21
tp1005
(I600
I600
tp1006
s(g28
g188
tp1007
(I540
I540
tp1008
s(g100
g121
tp1009
(I400
I400
tp1010
s(g60
g21
tp1011
(I600
I600
tp1012
s(g47
g85
tp1013
(I504
I434
tp1014
s(g21
g9
tp1015
(I600
I600
tp1016
s(g77
g74
tp1017
(I600
I600
tp1018
s(g81
g92
tp1019
(I600
I600
tp1020
s(g57
g78
tp1021
(I774
I129
tp1022
s(g13
g51
tp1023
(I776
I316
tp1024
s(g89
g128
tp1025
(I0
I1000
tp1026
s(g183
g60
tp1027
(I600
I600
tp1028
s(g14
g227
tp1029
(I600
I600
tp1030
s(g81
g14
tp1031
(I600
I600
tp1032
s(g188
g78
tp1033
(I0
I1000
tp1034
s(g64
g9
tp1035
(I600
I600
tp1036
s(g13
g25
tp1037
(I600
I600
tp1038
s(g35
g227
tp1039
(I600
I600
tp1040
s(g51
g93
tp1041
(I0
I1000
tp1042
s(g81
g21
tp1043
(I600
I600
tp1044
s(g28
g35
tp1045
(I600
I600
tp1046
s(g14
g188
tp1047
(I892
I117
tp1048
s(g9
g121
tp1049
(I600
I600
tp1050
s(g84
g124
tp1051
(I600
I600
tp1052
s(g28
g25
tp1053
(I600
I600
tp1054
s(g125
g22
tp1055
(I600
I600
tp1056
s(g183
g74
tp1057
(I600
I600
tp1058
s(g141
g188
tp1059
(I708
I348
tp1060
s(g41
g244
tp1061
(I6
I996
tp1062
s(g60
g141
tp1063
(I600
I600
tp1064
s(g88
g18
tp1065
(I600
I600
tp1066
s(g69
g227
tp1067
(I558
I628
tp1068
s(g28
g18
tp1069
(I600
I600
tp1070
s(g69
g57
tp1071
(I600
I600
tp1072
s(g124
g93
tp1073
(I0
I1000
tp1074
s(g169
g28
tp1075
(I509
I494
tp1076
s(g88
g88
tp1077
(I600
I600
tp1078
s(g166
g57
tp1079
(I600
I600
tp1080
s(g110
g92
tp1081
(I366
I746
tp1082
s(g56
g74
tp1083
(I200
I200
tp1084
s(g57
g128
tp1085
(I0
I1000
tp1086
s(g77
g88
tp1087
(I600
I600
tp1088
s(g169
g176
tp1089
(I138
I583
tp1090
s(g85
g74
tp1091
(I600
I600
tp1092
s(g17
g128
tp1093
(I0
I1000
tp1094
s(g125
g163
tp1095
(I600
I600
tp1096
s(g128
g36
tp1097
(I600
I600
tp1098
s(g63
g36
tp1099
(I0
I1000
tp1100
s(g28
g10
tp1101
(I600
I600
tp1102
s(g84
g88
tp1103
(I600
I600
tp1104
s(g160
g32
tp1105
(I0
I1000
tp1106
s(g13
g121
tp1107
(I600
I600
tp1108
s(g169
g188
tp1109
(I800
I300
tp1110
s(g88
g110
tp1111
(I664
I454
tp1112
s(g176
g93
tp1113
(I0
I1000
tp1114
s(g35
g244
tp1115
(I609
I144
tp1116
s(g69
g77
tp1117
(I600
I600
tp1118
s(g28
g110
tp1119
(I379
I739
tp1120
s(g84
g92
tp1121
(I600
I600
tp1122
s(g21
g110
tp1123
(I374
I744
tp1124
s(g10
g128
tp1125
(I0
I1000
tp1126
s(g63
g88
tp1127
(I600
I600
tp1128
s(g64
g166
tp1129
(I600
I600
tp1130
s(g84
g14
tp1131
(I600
I600
tp1132
s(g92
g128
tp1133
(I0
I1000
tp1134
s(g81
g89
tp1135
(I600
I600
tp1136
s(g183
g35
tp1137
(I600
I600
tp1138
s(g100
g9
tp1139
(I225
I725
tp1140
s(g47
g21
tp1141
(I482
I447
tp1142
s(g100
g110
tp1143
(I992
I7
tp1144
s(g56
g124
tp1145
(I204
I199
tp1146
s(g14
g57
tp1147
(I600
I600
tp1148
s(g64
g22
tp1149
(I600
I600
tp1150
s(g103
g22
tp1151
(I600
I600
tp1152
s(g160
g25
tp1153
(I5
I995
tp1154
s(g100
g57
tp1155
(I117
I857
tp1156
s(g9
g128
tp1157
(I0
I1000
tp1158
s(g124
g28
tp1159
(I600
I600
tp1160
s(g13
g78
tp1161
(I717
I162
tp1162
s(g166
g36
tp1163
(I0
I1000
tp1164
s(g124
g36
tp1165
(I0
I1000
tp1166
s(g124
g57
tp1167
(I600
I600
tp1168
s(g29
g128
tp1169
(I0
I1000
tp1170
s(g169
g25
tp1171
(I450
I450
tp1172
s(g35
g22
tp1173
(I600
I600
tp1174
s(g89
g14
tp1175
(I600
I600
tp1176
s(g9
g29
tp1177
(I203
I203
tp1178
s(g28
g28
tp1179
(I600
I600
tp1180
s(g110
g78
tp1181
(I0
I1000
tp1182
s(g10
g36
tp1183
(I0
I1000
tp1184
s(g92
g51
tp1185
(I783
I308
tp1186
s(g89
g74
tp1187
(I600
I600
tp1188
s(g56
g84
tp1189
(I1000
I0
tp1190
s(g166
g35
tp1191
(I600
I600
tp1192
s(g110
g10
tp1193
(I749
I369
tp1194
s(g21
g32
tp1195
(I0
I1000
tp1196
s(g64
g160
tp1197
(I995
I5
tp1198
s(g121
g128
tp1199
(I0
I1000
tp1200
s(g13
g103
tp1201
(I600
I600
tp1202
s(g160
g74
tp1203
(I200
I200
tp1204
s(g169
g57
tp1205
(I135
I590
tp1206
s(g103
g244
tp1207
(I582
I132
tp1208
s(g183
g77
tp1209
(I600
I600
tp1210
s(g14
g128
tp1211
(I0
I1000
tp1212
s(g125
g141
tp1213
(I600
I600
tp1214
s(g141
g128
tp1215
(I0
I1000
tp1216
s(g17
g51
tp1217
(I860
I205
tp1218
s(g124
g124
tp1219
(I600
I600
tp1220
s(g48
g32
tp1221
(I0
I1000
tp1222
s(g60
g60
tp1223
(I600
I600
tp1224
s(g141
g29
tp1225
(I597
I602
tp1226
s(g17
g160
tp1227
(I861
I206
tp1228
s(g35
g128
tp1229
(I0
I1000
tp1230
s(g141
g22
tp1231
(I600
I600
tp1232
s(g18
g14
tp1233
(I600
I600
tp1234
s(g166
g9
tp1235
(I600
I600
tp1236
s(g110
g51
tp1237
(I304
I794
tp1238
s(g103
g10
tp1239
(I600
I600
tp1240
s(g141
g51
tp1241
(I354
I744
tp1242
s(g169
g103
tp1243
(I128
I588
tp1244
s(g89
g141
tp1245
(I600
I600
tp1246
s(g169
g93
tp1247
(I0
I1000
tp1248
s(g169
g88
tp1249
(I107
I597
tp1250
s(g60
g22
tp1251
(I600
I600
tp1252
s(g17
g14
tp1253
(I78
I928
tp1254
s(g100
g188
tp1255
(I998
I3
tp1256
s(g64
g125
tp1257
(I600
I600
tp1258
s(g89
g28
tp1259
(I600
I600
tp1260
s(g176
g92
tp1261
(I600
I600
tp1262
s(g18
g244
tp1263
(I587
I157
tp1264
s(g60
g25
tp1265
(I600
I600
tp1266
s(g56
g22
tp1267
(I204
I199
tp1268
s(g103
g74
tp1269
(I600
I600
tp1270
s(g176
g10
tp1271
(I600
I600
tp1272
s(g100
g51
tp1273
(I992
I7
tp1274
s(g60
g51
tp1275
(I984
I14
tp1276
s(g48
g21
tp1277
(I600
I600
tp1278
s(g84
g63
tp1279
(I600
I600
tp1280
s(g21
g93
tp1281
(I0
I1000
tp1282
s(g41
g89
tp1283
(I597
I597
tp1284
s(g169
g41
tp1285
(I800
I300
tp1286
s(g169
g128
tp1287
(I0
I1000
tp1288
s(g56
g9
tp1289
(I204
I199
tp1290
s(g63
g74
tp1291
(I600
I600
tp1292
s(g41
g48
tp1293
(I602
I587
tp1294
s(g176
g188
tp1295
(I810
I240
tp1296
s(g84
g121
tp1297
(I600
I600
tp1298
s(g92
g78
tp1299
(I848
I88
tp1300
s(g63
g22
tp1301
(I600
I600
tp1302
s(g28
g78
tp1303
(I420
I420
tp1304
s(g47
g188
tp1305
(I1000
I0
tp1306
s(g124
g92
tp1307
(I600
I600
tp1308
s(g81
g103
tp1309
(I600
I600
tp1310
s(g69
g25
tp1311
(I600
I600
tp1312
s(g244
g227
tp1313
(I186
I546
tp1314
s(g169
g92
tp1315
(I123
I593
tp1316
s(g92
g29
tp1317
(I203
I203
tp1318
s(g88
g64
tp1319
(I600
I600
tp1320
s(g13
g18
tp1321
(I600
I600
tp1322
s(g183
g9
tp1323
(I600
I600
tp1324
s(g47
g176
tp1325
(I104
I864
tp1326
s(g74
g32
tp1327
(I0
I1000
tp1328
s(g22
g128
tp1329
(I0
I1000
tp1330
s(g41
g93
tp1331
(I0
I1000
tp1332
s(g169
g163
tp1333
(I114
I594
tp1334
s(g125
g10
tp1335
(I600
I600
tp1336
s(g78
g121
tp1337
(I200
I200
tp1338
s(g85
g93
tp1339
(I0
I1000
tp1340
s(g25
g74
tp1341
(I600
I600
tp1342
s(g124
g227
tp1343
(I396
I306
tp1344
s(g48
g48
tp1345
(I600
I600
tp1346
s(g69
g93
tp1347
(I0
I1000
tp1348
s(g60
g77
tp1349
(I600
I600
tp1350
s(g69
g17
tp1351
(I3
I998
tp1352
s(g88
g9
tp1353
(I600
I600
tp1354
s(g64
g121
tp1355
(I600
I600
tp1356
s(g9
g227
tp1357
(I600
I600
tp1358
s(g124
g141
tp1359
(I600
I600
tp1360
s(g41
g17
tp1361
(I3
I998
tp1362
s(g166
g22
tp1363
(I600
I600
tp1364
s(g176
g160
tp1365
(I637
I542
tp1366
s(g160
g22
tp1367
(I596
I601
tp1368
s(g22
g74
tp1369
(I600
I600
tp1370
s(g47
g36
tp1371
(I0
I1000
tp1372
s(g60
g92
tp1373
(I600
I600
tp1374
s(g28
g103
tp1375
(I600
I600
tp1376
s(g18
g74
tp1377
(I600
I600
tp1378
s(g84
g9
tp1379
(I600
I600
tp1380
s(g29
g93
tp1381
(I0
I1000
tp1382
s(g29
g42
tp1383
(I1
I996
tp1384
s(g64
g42
tp1385
(I0
I1000
tp1386
s(g166
g25
tp1387
(I600
I600
tp1388
s(g14
g163
tp1389
(I600
I600
tp1390
s(g81
g121
tp1391
(I600
I600
tp1392
s(g85
g103
tp1393
(I600
I600
tp1394
s(g9
g51
tp1395
(I681
I416
tp1396
s(g35
g29
tp1397
(I203
I203
tp1398
s(g56
g13
tp1399
(I204
I199
tp1400
s(g103
g121
tp1401
(I600
I600
tp1402
s(g163
g22
tp1403
(I600
I600
tp1404
s(g47
g227
tp1405
(I79
I919
tp1406
s(g88
g125
tp1407
(I600
I600
tp1408
s(g100
g29
tp1409
(I450
I450
tp1410
s(g85
g13
tp1411
(I600
I600
tp1412
s(g9
g22
tp1413
(I600
I600
tp1414
s(g17
g36
tp1415
(I0
I1000
tp1416
s(g47
g25
tp1417
(I600
I265
tp1418
s(g169
g13
tp1419
(I171
I581
tp1420
s(g84
g32
tp1421
(I0
I1000
tp1422
s(g28
g74
tp1423
(I600
I600
tp1424
s(g9
g57
tp1425
(I600
I600
tp1426
s(g100
g60
tp1427
(I14
I984
tp1428
s(g47
g103
tp1429
(I1000
I0
tp1430
s(g48
g227
tp1431
(I258
I533
tp1432
s(g78
g36
tp1433
(I0
I1000
tp1434
s(g57
g51
tp1435
(I760
I335
tp1436
s(g88
g22
tp1437
(I600
I600
tp1438
s(g100
g93
tp1439
(I0
I1000
tp1440
s(g88
g92
tp1441
(I600
I600
tp1442
s(g47
g18
tp1443
(I114
I859
tp1444
s(g92
g36
tp1445
(I0
I1000
tp1446
s(g103
g57
tp1447
(I600
I600
tp1448
s(g21
g21
tp1449
(I600
I600
tp1450
s(g110
g121
tp1451
(I520
I520
tp1452
s(g84
g10
tp1453
(I600
I600
tp1454
s(g163
g128
tp1455
(I0
I1000
tp1456
s(g89
g22
tp1457
(I600
I600
tp1458
s(g57
g29
tp1459
(I203
I203
tp1460
s(g183
g25
tp1461
(I600
I600
tp1462
s(g56
g92
tp1463
(I204
I199
tp1464
s(g183
g89
tp1465
(I600
I600
tp1466
s(g89
g78
tp1467
(I364
I369
tp1468
s(g89
g85
tp1469
(I600
I600
tp1470
s(g160
g36
tp1471
(I0
I1000
tp1472
s(g56
g88
tp1473
(I204
I199
tp1474
s(g69
g110
tp1475
(I3
I998
tp1476
s(g88
g42
tp1477
(I0
I1000
tp1478
s(g81
g77
tp1479
(I600
I600
tp1480
s(g124
g51
tp1481
(I314
I784
tp1482
s(g100
g163
tp1483
(I39
I959
tp1484
s(g47
g93
tp1485
(I0
I1000
tp1486
s(g183
g36
tp1487
(I0
I1000
tp1488
s(g84
g18
tp1489
(I600
I600
tp1490
s(g244
g29
tp1491
(I597
I602
tp1492
s(g63
g92
tp1493
(I600
I600
tp1494
s(g56
g25
tp1495
(I600
I100
tp1496
s(g125
g121
tp1497
(I600
I600
tp1498
s(g85
g22
tp1499
(I600
I600
tp1500
s(g124
g244
tp1501
(I592
I597
tp1502
s(g63
g124
tp1503
(I600
I600
tp1504
s(g166
g10
tp1505
(I600
I600
tp1506
s(g17
g93
tp1507
(I0
I1000
tp1508
s(g163
g42
tp1509
(I0
I1000
tp1510
s(g69
g29
tp1511
(I597
I602
tp1512
s(g110
g32
tp1513
(I0
I1000
tp1514
s(g244
g51
tp1515
(I549
I549
tp1516
s(g78
g25
tp1517
(I600
I100
tp1518
s(g13
g9
tp1519
(I600
I600
tp1520
s(g18
g121
tp1521
(I600
I600
tp1522
s(g63
g35
tp1523
(I600
I600
tp1524
s(g176
g35
tp1525
(I600
I600
tp1526
s(g9
g93
tp1527
(I0
I1000
tp1528
s(g85
g42
tp1529
(I0
I1000
tp1530
s(g169
g9
tp1531
(I171
I581
tp1532
s(g21
g18
tp1533
(I600
I600
tp1534
s(g100
g100
tp1535
(I400
I400
tp1536
s(g85
g110
tp1537
(I374
I744
tp1538
s(g29
g29
tp1539
(I200
I200
tp1540
s(g47
g125
tp1541
(I141
I826
tp1542
s(g69
g35
tp1543
(I600
I600
tp1544
s(g69
g188
tp1545
(I9
I994
tp1546
s(g81
g85
tp1547
(I600
I600
tp1548
s(g56
g110
tp1549
(I1000
I0
tp1550
s(g124
g74
tp1551
(I600
I600
tp1552
s(g183
g18
tp1553
(I600
I600
tp1554
s(g84
g141
tp1555
(I600
I600
tp1556
s(g28
g128
tp1557
(I0
I1000
tp1558
s(g51
g227
tp1559
(I117
I882
tp1560
s(g47
g41
tp1561
(I1000
I0
tp1562
s(g110
g227
tp1563
(I7
I992
tp1564
s(g244
g74
tp1565
(I596
I596
tp1566
s(g166
g125
tp1567
(I600
I600
tp1568
s(g88
g17
tp1569
(I773
I273
tp1570
s(g183
g14
tp1571
(I600
I600
tp1572
s(g69
g92
tp1573
(I600
I600
tp1574
s(g89
g92
tp1575
(I600
I600
tp1576
s(g17
g29
tp1577
(I498
I503
tp1578
s(g141
g35
tp1579
(I600
I600
tp1580
s(g124
g110
tp1581
(I374
I744
tp1582
s(g103
g92
tp1583
(I600
I600
tp1584
s(g57
g42
tp1585
(I0
I1000
tp1586
s(g81
g60
tp1587
(I600
I600
tp1588
s(g78
g42
tp1589
(I1
I996
tp1590
s(g163
g36
tp1591
(I0
I1000
tp1592
s(g227
g93
tp1593
(I0
I1000
tp1594
s(g89
g124
tp1595
(I600
I600
tp1596
s(g77
g17
tp1597
(I801
I261
tp1598
s(g163
g25
tp1599
(I600
I600
tp1600
s(g124
g103
tp1601
(I600
I600
tp1602
s(g85
g18
tp1603
(I600
I600
tp1604
s(g89
g17
tp1605
(I532
I532
tp1606
s(g88
g128
tp1607
(I0
I1000
tp1608
s(g60
g188
tp1609
(I980
I20
tp1610
s(g100
g69
tp1611
(I998
I3
tp1612
s(g69
g244
tp1613
(I6
I996
tp1614
s(g17
g74
tp1615
(I466
I466
tp1616
s(g41
g227
tp1617
(I71
I931
tp1618
s(g41
g57
tp1619
(I561
I621
tp1620
s(g18
g103
tp1621
(I600
I600
tp1622
s(g160
g110
tp1623
(I365
I755
tp1624
s(g188
g121
tp1625
(I564
I564
tp1626
s(g13
g93
tp1627
(I0
I1000
tp1628
s(g57
g92
tp1629
(I600
I600
tp1630
s(g18
g36
tp1631
(I0
I1000
tp1632
s(g103
g227
tp1633
(I600
I600
tp1634
s(g32
g32
tp1635
(I0
I1000
tp1636
s(g166
g166
tp1637
(I600
I600
tp1638
s(g128
g93
tp1639
(I600
I600
tp1640
s(g141
g36
tp1641
(I0
I1000
tp1642
s(g9
g42
tp1643
(I0
I1000
tp1644
s(g77
g176
tp1645
(I600
I600
tp1646
s(g81
g227
tp1647
(I209
I209
tp1648
s(g100
g77
tp1649
(I144
I824
tp1650
s(g21
g36
tp1651
(I0
I1000
tp1652
s(g18
g51
tp1653
(I760
I335
tp1654
s(g160
g78
tp1655
(I200
I200
tp1656
s(g47
g77
tp1657
(I141
I826
tp1658
s(g84
g42
tp1659
(I0
I1000
tp1660
s(g57
g188
tp1661
(I757
I302
tp1662
s(g63
g128
tp1663
(I0
I1000
tp1664
s(g18
g9
tp1665
(I600
I600
tp1666
s(g21
g227
tp1667
(I415
I465
tp1668
s(g41
g125
tp1669
(I570
I615
tp1670
s(g28
g121
tp1671
(I600
I600
tp1672
s(g100
g103
tp1673
(I39
I959
tp1674
s(g81
g47
tp1675
(I450
I450
tp1676
s(g77
g85
tp1677
(I600
I600
tp1678
s(g125
g14
tp1679
(I600
I600
tp1680
s(g166
g29
tp1681
(I597
I602
tp1682
s(g60
g121
tp1683
(I600
I600
tp1684
s(g60
g78
tp1685
(I978
I13
tp1686
s(g163
g163
tp1687
(I600
I600
tp1688
s(g81
g166
tp1689
(I600
I600
tp1690
s(g85
g57
tp1691
(I600
I600
tp1692
s(g47
g42
tp1693
(I1
I996
tp1694
s(g125
g92
tp1695
(I600
I600
tp1696
s(g35
g92
tp1697
(I600
I600
tp1698
s(g28
g13
tp1699
(I600
I600
tp1700
s(g163
g10
tp1701
(I600
I600
tp1702
s(g28
g244
tp1703
(I591
I591
tp1704
s(g141
g78
tp1705
(I646
I236
tp1706
s(g124
g121
tp1707
(I600
I600
tp1708
s(g64
g103
tp1709
(I600
I600
tp1710
s(g124
g14
tp1711
(I600
I600
tp1712
s(g169
g17
tp1713
(I664
I334
tp1714
s(g85
g124
tp1715
(I600
I600
tp1716
s(g18
g128
tp1717
(I0
I1000
tp1718
s(g166
g42
tp1719
(I0
I1000
tp1720
s(g63
g25
tp1721
(I600
I600
tp1722
s(g63
g89
tp1723
(I600
I600
tp1724
s(g28
g22
tp1725
(I600
I600
tp1726
s(g17
g166
tp1727
(I647
I412
tp1728
s(g78
g32
tp1729
(I0
I1000
tp1730
s(g13
g10
tp1731
(I600
I600
tp1732
s(g163
g92
tp1733
(I600
I600
tp1734
s(g188
g36
tp1735
(I0
I1000
tp1736
s(g160
g128
tp1737
(I0
I1000
tp1738
s(g48
g51
tp1739
(I314
I784
tp1740
s(g163
g32
tp1741
(I0
I1000
tp1742
s(g41
g10
tp1743
(I599
I594
tp1744
s(g56
g35
tp1745
(I204
I199
tp1746
s(g28
g51
tp1747
(I434
I664
tp1748
s(g69
g128
tp1749
(I0
I1000
tp1750
s(g88
g121
tp1751
(I600
I600
tp1752
s(g21
g51
tp1753
(I314
I784
tp1754
s(g13
g110
tp1755
(I743
I368
tp1756
s(g29
g121
tp1757
(I200
I200
tp1758
s(g183
g124
tp1759
(I600
I600
tp1760
s(g84
g22
tp1761
(I600
I600
tp1762
s(g47
g64
tp1763
(I6
I991
tp1764
s(g163
g29
tp1765
(I237
I237
tp1766
s(g64
g128
tp1767
(I0
I1000
tp1768
s(g48
g74
tp1769
(I600
I600
tp1770
s(g47
g160
tp1771
(I989
I9
tp1772
s(g81
g42
tp1773
(I0
I1000
tp1774
s(g141
g32
tp1775
(I0
I1000
tp1776
s(g48
g85
tp1777
(I600
I600
tp1778
s(g244
g128
tp1779
(I0
I1000
tp1780
s(g176
g32
tp1781
(I0
I1000
tp1782
s(g57
g57
tp1783
(I600
I600
tp1784
s(g28
g93
tp1785
(I0
I1000
tp1786
s(g69
g51
tp1787
(I3
I998
tp1788
s(g14
g22
tp1789
(I600
I600
tp1790
s(g81
g160
tp1791
(I599
I599
tp1792
s(g183
g176
tp1793
(I600
I600
tp1794
s(g103
g51
tp1795
(I959
I39
tp1796
s(g78
g128
tp1797
(I0
I1000
tp1798
s(g69
g125
tp1799
(I600
I600
tp1800
s(g29
g188
tp1801
(I557
I552
tp1802
s(g89
g110
tp1803
(I559
I559
tp1804
s(g29
g22
tp1805
(I203
I203
tp1806
s(g88
g93
tp1807
(I0
I1000
tp1808
s(g41
g51
tp1809
(I3
I998
tp1810
s(g100
g64
tp1811
(I9
I989
tp1812
s(g60
g128
tp1813
(I0
I1000
tp1814
s(g41
g160
tp1815
(I597
I602
tp1816
s(g85
g188
tp1817
(I498
I568
tp1818
s(g92
g244
tp1819
(I602
I127
tp1820
s(g169
g69
tp1821
(I800
I300
tp1822
s(g125
g29
tp1823
(I230
I230
tp1824
s(g17
g57
tp1825
(I268
I788
tp1826
s(g100
g48
tp1827
(I470
I465
tp1828
s(g77
g21
tp1829
(I600
I600
tp1830
s(g64
g64
tp1831
(I600
I600
tp1832
s(g63
g18
tp1833
(I600
I600
tp1834
s(g160
g57
tp1835
(I563
I623
tp1836
s(g48
g35
tp1837
(I600
I600
tp1838
s(g176
g9
tp1839
(I600
I600
tp1840
s(g85
g176
tp1841
(I600
I600
tp1842
s(g124
g13
tp1843
(I600
I600
tp1844
s(g84
g25
tp1845
(I600
I600
tp1846
s(g100
g125
tp1847
(I144
I824
tp1848
s(g110
g25
tp1849
(I29
I974
tp1850
s(g74
g36
tp1851
(I0
I1000
tp1852
s(g63
g14
tp1853
(I600
I600
tp1854
s(g51
g121
tp1855
(I500
I500
tp1856
s(g64
g57
tp1857
(I600
I600
tp1858
s(g17
g64
tp1859
(I9
I989
tp1860
s(g92
g10
tp1861
(I600
I600
tp1862
s(g169
g22
tp1863
(I107
I597
tp1864
s(g128
g128
tp1865
(I0
I1000
tp1866
s(g81
g69
tp1867
(I600
I600
tp1868
s(g17
g176
tp1869
(I244
I814
tp1870
s(g166
g32
tp1871
(I0
I1000
tp1872
s(g124
g22
tp1873
(I600
I600
tp1874
s(g81
g28
tp1875
(I600
I600
tp1876
s(g100
g92
tp1877
(I81
I901
tp1878
s(g48
g141
tp1879
(I600
I600
tp1880
s(g29
g78
tp1881
(I200
I200
tp1882
s(g183
g41
tp1883
(I12
I992
tp1884
s(g141
g25
tp1885
(I600
I600
tp1886
s(g63
g41
tp1887
(I595
I600
tp1888
s(g84
g17
tp1889
(I3
I998
tp1890
s(g78
g74
tp1891
(I200
I200
tp1892
s(g100
g28
tp1893
(I473
I478
tp1894
s(g88
g13
tp1895
(I600
I600
tp1896
s(g64
g176
tp1897
(I600
I600
tp1898
s(g35
g121
tp1899
(I600
I600
tp1900
s(g48
g78
tp1901
(I520
I320
tp1902
s(g103
g78
tp1903
(I0
I1000
tp1904
s(g176
g244
tp1905
(I594
I404
tp1906
s(g25
g25
tp1907
(I600
I600
tp1908
s(g85
g141
tp1909
(I600
I600
tp1910
s(g77
g93
tp1911
(I0
I1000
tp1912
s(g41
g88
tp1913
(I558
I623
tp1914
s(g84
g103
tp1915
(I600
I600
tp1916
s(g81
g110
tp1917
(I559
I559
tp1918
s(g78
g78
tp1919
(I200
I200
tp1920
s(g103
g103
tp1921
(I600
I600
tp1922
s(g77
g121
tp1923
(I600
I600
tp1924
s(g103
g29
tp1925
(I582
I587
tp1926
s(g21
g166
tp1927
(I600
I600
tp1928
s(g100
g89
tp1929
(I450
I450
tp1930
s(g18
g18
tp1931
(I600
I600
tp1932
s(g22
g121
tp1933
(I600
I600
tp1934
s(g14
g103
tp1935
(I600
I600
tp1936
s(g188
g188
tp1937
(I564
I564
tp1938
s(g163
g103
tp1939
(I600
I600
tp1940
s(g100
g78
tp1941
(I0
I1000
tp1942
s(g163
g93
tp1943
(I0
I1000
tp1944
s(g183
g163
tp1945
(I600
I600
tp1946
s(g81
g81
tp1947
(I600
I600
tp1948
s(g100
g36
tp1949
(I0
I1000
tp1950
s(g48
g176
tp1951
(I600
I600
tp1952
s(g169
g166
tp1953
(I800
I300
tp1954
s(g125
g93
tp1955
(I0
I1000
tp1956
s(g169
g63
tp1957
(I450
I450
tp1958
s(g28
g176
tp1959
(I600
I600
tp1960
s(g63
g10
tp1961
(I600
I600
tp1962
s(g77
g103
tp1963
(I600
I600
tp1964
s(g56
g81
tp1965
(I204
I199
tp1966
s(g183
g22
tp1967
(I600
I600
tp1968
s(g100
g124
tp1969
(I482
I452
tp1970
s(g128
g32
tp1971
(I600
I600
tp1972
s(g9
g32
tp1973
(I0
I1000
tp1974
s(g56
g163
tp1975
(I216
I196
tp1976
s(g48
g188
tp1977
(I338
I718
tp1978
s(g92
g188
tp1979
(I811
I231
tp1980
s(g84
g69
tp1981
(I600
I600
tp1982
s(g14
g9
tp1983
(I600
I600
tp1984
s(g47
g78
tp1985
(I1
I996
tp1986
s(g183
g56
tp1987
(I0
I1000
tp1988
s(g48
g36
tp1989
(I0
I1000
tp1990
s(g183
g81
tp1991
(I600
I600
tp1992
s(g77
g10
tp1993
(I600
I600
tp1994
s(g125
g25
tp1995
(I600
I600
tp1996
s(g21
g57
tp1997
(I600
I600
tp1998
s(g48
g160
tp1999
(I599
I599
tp2000
s(g84
g64
tp2001
(I600
I600
tp2002
s(g227
g36
tp2003
(I0
I1000
tp2004
s(g13
g57
tp2005
(I600
I600
tp2006
s(g69
g18
tp2007
(I600
I600
tp2008
s(g77
g35
tp2009
(I600
I600
tp2010
s(g166
g128
tp2011
(I0
I1000
tp2012
s(g56
g63
tp2013
(I600
I100
tp2014
s(g88
g28
tp2015
(I600
I600
tp2016
s(g56
g56
tp2017
(I200
I200
tp2018
s(g84
g29
tp2019
(I597
I602
tp2020
s(g18
g57
tp2021
(I600
I600
tp2022
s(g92
g121
tp2023
(I600
I600
tp2024
s(g166
g93
tp2025
(I0
I1000
tp2026
s(g28
g9
tp2027
(I600
I600
tp2028
s(g28
g125
tp2029
(I600
I600
tp2030
s(g17
g141
tp2031
(I341
I721
tp2032
s(g227
g32
tp2033
(I0
I1000
tp2034
s(g48
g14
tp2035
(I600
I600
tp2036
s(g9
g78
tp2037
(I626
I216
tp2038
s(g188
g22
tp2039
(I518
I583
tp2040
s(g48
g25
tp2041
(I600
I600
tp2042
s(g160
g10
tp2043
(I602
I597
tp2044
s(g63
g13
tp2045
(I600
I600
tp2046
s(g14
g121
tp2047
(I600
I600
tp2048
s(g100
g14
tp2049
(I79
I909
tp2050
s(g183
g13
tp2051
(I600
I600
tp2052
s(g56
g29
tp2053
(I200
I200
tp2054
s(g63
g244
tp2055
(I595
I600
tp2056
s(g56
g128
tp2057
(I0
I1000
tp2058
s(g183
g244
tp2059
(I6
I996
tp2060
s(g183
g183
tp2061
(I600
I600
tp2062
s(g169
g77
tp2063
(I171
I581
tp2064
s(g21
g35
tp2065
(I600
I600
tp2066
s(g125
g74
tp2067
(I600
I600
tp2068
s(g244
g42
tp2069
(I0
I1000
tp2070
s(g69
g32
tp2071
(I0
I1000
tp2072
s(g81
g63
tp2073
(I600
I600
tp2074
s(g176
g227
tp2075
(I600
I600
tp2076
s(g163
g51
tp2077
(I959
I39
tp2078
s(g69
g141
tp2079
(I600
I600
tp2080
s(g35
g10
tp2081
(I600
I600
tp2082
s(g60
g28
tp2083
(I600
I600
tp2084
s(g85
g125
tp2085
(I600
I600
tp2086
s(g56
g93
tp2087
(I0
I1000
tp2088
s(g183
g128
tp2089
(I0
I1000
tp2090
s(g48
g57
tp2091
(I600
I600
tp2092
s(g78
g22
tp2093
(I316
I451
tp2094
s(g124
g42
tp2095
(I0
I1000
tp2096
s(g21
g64
tp2097
(I600
I600
tp2098
s(g21
g160
tp2099
(I599
I599
tp2100
s(g124
g160
tp2101
(I599
I599
tp2102
s(g77
g22
tp2103
(I600
I600
tp2104
s(g88
g48
tp2105
(I600
I600
tp2106
s(g169
g32
tp2107
(I0
I1000
tp2108
s(g29
g10
tp2109
(I602
I597
tp2110
s(g21
g188
tp2111
(I496
I546
tp2112
s(g88
g10
tp2113
(I600
I600
tp2114
s(g169
g14
tp2115
(I128
I588
tp2116
s(g124
g18
tp2117
(I600
I600
tp2118
s(g56
g89
tp2119
(I204
I199
tp2120
s(g18
g32
tp2121
(I0
I1000
tp2122
s(g21
g10
tp2123
(I600
I600
tp2124
s(g22
g32
tp2125
(I0
I1000
tp2126
s(g48
g244
tp2127
(I592
I597
tp2128
s(g166
g176
tp2129
(I600
I600
tp2130
s(g160
g244
tp2131
(I602
I597
tp2132
s(g69
g13
tp2133
(I600
I600
tp2134
s(g100
g35
tp2135
(I144
I824
tp2136
s(g17
g110
tp2137
(I860
I205
tp2138
s(g60
g48
tp2139
(I600
I600
tp2140
s(g77
g32
tp2141
(I0
I1000
tp2142
s(g57
g93
tp2143
(I0
I1000
tp2144
s(g89
g244
tp2145
(I597
I597
tp2146
s(g124
g163
tp2147
(I600
I600
tp2148
s(g176
g36
tp2149
(I0
I1000
tp2150
s(g64
g13
tp2151
(I600
I600
tp2152
s(g121
g36
tp2153
(I0
I1000
tp2154
s(g10
g10
tp2155
(I600
I600
tp2156
s(g141
g57
tp2157
(I600
I600
tp2158
s(g42
g93
tp2159
(I1000
I0
tp2160
s(g10
g121
tp2161
(I600
I600
tp2162
s(g18
g92
tp2163
(I600
I600
tp2164
s(g41
g188
tp2165
(I9
I994
tp2166
s(g18
g22
tp2167
(I600
I600
tp2168
s(g188
g93
tp2169
(I0
I1000
tp2170
s(g183
g57
tp2171
(I600
I600
tp2172
s(g163
g121
tp2173
(I600
I600
tp2174
s(g22
g22
tp2175
(I600
I600
tp2176
s(g244
g93
tp2177
(I0
I1000
tp2178
s(g21
g25
tp2179
(I600
I600
tp2180
s(g100
g32
tp2181
(I0
I1000
tp2182
s(g63
g42
tp2183
(I0
I1000
tp2184
s(g10
g32
tp2185
(I0
I1000
tp2186
s(g141
g9
tp2187
(I600
I600
tp2188
s(g110
g36
tp2189
(I0
I1000
tp2190
s(g10
g25
tp2191
(I600
I600
tp2192
s(g60
g93
tp2193
(I0
I1000
tp2194
s(g84
g36
tp2195
(I0
I1000
tp2196
s(g25
g128
tp2197
(I0
I1000
tp2198
s(g176
g163
tp2199
(I600
I600
tp2200
s(g88
g124
tp2201
(I600
I600
tp2202
s(g169
g64
tp2203
(I107
I597
tp2204
s(g41
g64
tp2205
(I18
I983
tp2206
s(g141
g93
tp2207
(I0
I1000
tp2208
s(g84
g35
tp2209
(I600
I600
tp2210
s(g69
g42
tp2211
(I0
I1000
tp2212
s(g124
g78
tp2213
(I488
I368
tp2214
s(g51
g32
tp2215
(I0
I1000
tp2216
s(g13
g141
tp2217
(I600
I600
tp2218
s(g13
g36
tp2219
(I0
I1000
tp2220
s(g92
g92
tp2221
(I600
I600
tp2222
s(g56
g18
tp2223
(I252
I187
tp2224
s(g17
g227
tp2225
(I245
I820
tp2226
s(g84
g41
tp2227
(I12
I992
tp2228
s(g81
g51
tp2229
(I549
I549
tp2230
s(g69
g60
tp2231
(I600
I600
tp2232
s(g56
g14
tp2233
(I1000
I0
tp2234
s(g60
g125
tp2235
(I600
I600
tp2236
s(g169
g121
tp2237
(I400
I400
tp2238
s(g169
g48
tp2239
(I800
I300
tp2240
s(g77
g141
tp2241
(I600
I600
tp2242
s(g124
g29
tp2243
(I577
I582
tp2244
s(g169
g110
tp2245
(I796
I301
tp2246
s(g10
g51
tp2247
(I309
I789
tp2248
s(g81
g244
tp2249
(I597
I597
tp2250
s(g28
g32
tp2251
(I0
I1000
tp2252
s(g10
g227
tp2253
(I562
I567
tp2254
s(g100
g176
tp2255
(I104
I864
tp2256
s(g121
g42
tp2257
(I1
I996
tp2258
s(g64
g227
tp2259
(I579
I579
tp2260
s(g17
g22
tp2261
(I434
I599
tp2262
s(g64
g163
tp2263
(I600
I600
tp2264
s(g92
g227
tp2265
(I600
I600
tp2266
s(g13
g13
tp2267
(I600
I600
tp2268
s(g18
g110
tp2269
(I730
I385
tp2270
s(g13
g35
tp2271
(I600
I600
tp2272
s(g14
g42
tp2273
(I0
I1000
tp2274
s(g124
g176
tp2275
(I600
I600
tp2276
s(g89
g163
tp2277
(I600
I600
tp2278
s(g77
g25
tp2279
(I600
I600
tp2280
s(g41
g74
tp2281
(I598
I598
tp2282
s(g69
g163
tp2283
(I600
I600
tp2284
s(g85
g64
tp2285
(I600
I600
tp2286
s(g176
g29
tp2287
(I230
I230
tp2288
s(g85
g244
tp2289
(I592
I597
tp2290
s(g141
g103
tp2291
(I600
I600
tp2292
s(g188
g42
tp2293
(I0
I1000
tp2294
s(g110
g22
tp2295
(I494
I624
tp2296
s(g64
g74
tp2297
(I600
I600
tp2298
s(g18
g10
tp2299
(I600
I600
tp2300
s(g166
g18
tp2301
(I600
I600
tp2302
s(g35
g42
tp2303
(I0
I1000
tp2304
s(g183
g188
tp2305
(I9
I994
tp2306
s(g166
g163
tp2307
(I600
I600
tp2308
s(g124
g188
tp2309
(I427
I632
tp2310
s(g121
g93
tp2311
(I0
I1000
tp2312
s(g69
g74
tp2313
(I600
I600
tp2314
s(g47
g60
tp2315
(I11
I986
tp2316
s(g60
g103
tp2317
(I600
I600
tp2318
s(g89
g176
tp2319
(I600
I600
tp2320
s(g57
g36
tp2321
(I0
I1000
tp2322
s(g183
g51
tp2323
(I3
I998
tp2324
s(g13
g128
tp2325
(I0
I1000
tp2326
s(g183
g125
tp2327
(I600
I600
tp2328
s(g22
g227
tp2329
(I245
I245
tp2330
s(g10
g188
tp2331
(I513
I588
tp2332
s(g227
g121
tp2333
(I600
I600
tp2334
s(g163
g57
tp2335
(I600
I600
tp2336
s(g60
g85
tp2337
(I600
I600
tp2338
s(g100
g160
tp2339
(I993
I8
tp2340
s(g21
g74
tp2341
(I600
I600
tp2342
s(g74
g74
tp2343
(I600
I600
tp2344
s(g89
g32
tp2345
(I0
I1000
tp2346
s(g169
g125
tp2347
(I143
I588
tp2348
s(g29
g74
tp2349
(I200
I200
tp2350
s(g56
g125
tp2351
(I240
I190
tp2352
s(g124
g9
tp2353
(I600
I600
tp2354
s(g47
g10
tp2355
(I560
I360
tp2356
s(g188
g25
tp2357
(I600
I515
tp2358
s(g125
g57
tp2359
(I600
I600
tp2360
s(g89
g29
tp2361
(I500
I500
tp2362
s(g48
g10
tp2363
(I600
I600
tp2364
s(g125
g18
tp2365
(I600
I600
tp2366
s(g63
g166
tp2367
(I600
I600
tp2368
s(g85
g227
tp2369
(I388
I373
tp2370
s(g42
g128
tp2371
(I1000
I0
tp2372
s(g57
g25
tp2373
(I600
I600
tp2374
s(g47
g13
tp2375
(I105
I870
tp2376
s(g17
g188
tp2377
(I998
I3
tp2378
s(g41
g128
tp2379
(I0
I1000
tp2380
s(g77
g244
tp2381
(I606
I141
tp2382
s(g77
g14
tp2383
(I600
I600
tp2384
s(g85
g25
tp2385
(I600
I600
tp2386
s(g63
g163
tp2387
(I600
I600
tp2388
s(g57
g227
tp2389
(I600
I600
tp2390
s(g160
g188
tp2391
(I35
I975
tp2392
s(g176
g57
tp2393
(I600
I600
tp2394
s(g141
g141
tp2395
(I600
I600
tp2396
s(g60
g244
tp2397
(I594
I114
tp2398
s(g84
g89
tp2399
(I600
I600
tp2400
s(g10
g42
tp2401
(I0
I1000
tp2402
s(g41
g28
tp2403
(I595
I595
tp2404
s(g88
g57
tp2405
(I600
I600
tp2406
s(g163
g110
tp2407
(I959
I39
tp2408
s(g160
g51
tp2409
(I305
I795
tp2410
s(g56
g21
tp2411
(I204
I199
tp2412
s(g9
g74
tp2413
(I600
I600
tp2414
s(g41
g166
tp2415
(I559
I599
tp2416
s(g64
g188
tp2417
(I985
I15
tp2418
s(g89
g227
tp2419
(I600
I600
tp2420
s(g48
g29
tp2421
(I500
I500
tp2422
s(g48
g103
tp2423
(I600
I600
tp2424
s(g183
g121
tp2425
(I600
I600
tp2426
s(g103
g42
tp2427
(I0
I1000
tp2428
s(g63
g63
tp2429
(I600
I600
tp2430
s(g56
g42
tp2431
(I1
I996
tp2432
s(g25
g227
tp2433
(I903
I68
tp2434
s(g69
g160
tp2435
(I597
I602
tp2436
s(g60
g36
tp2437
(I0
I1000
tp2438
s(g88
g163
tp2439
(I600
I600
tp2440
s(g169
g21
tp2441
(I800
I300
tp2442
s(g77
g125
tp2443
(I600
I600
tp2444
s(g14
g110
tp2445
(I921
I96
tp2446
s(g176
g51
tp2447
(I783
I308
tp2448
s(g110
g57
tp2449
(I385
I730
tp2450
s(g84
g125
tp2451
(I600
I600
tp2452
s(g88
g25
tp2453
(I600
I600
tp2454
s(g36
g36
tp2455
(I0
I1000
tp2456
s(g41
g77
tp2457
(I570
I615
tp2458
s(g13
g74
tp2459
(I600
I600
tp2460
s(g28
g227
tp2461
(I445
I455
tp2462
s(g63
g57
tp2463
(I600
I600
tp2464
s(g56
g121
tp2465
(I200
I200
tp2466
s(g124
g166
tp2467
(I600
I600
tp2468
s(g227
g128
tp2469
(I0
I1000
tp2470
s(g47
g141
tp2471
(I207
I762
tp2472
s(g21
g42
tp2473
(I0
I1000
tp2474
s(g77
g28
tp2475
(I600
I600
tp2476
s(g183
g42
tp2477
(I0
I1000
tp2478
s(g28
g166
tp2479
(I600
I600
tp2480
s(g163
g160
tp2481
(I981
I26
tp2482
s(g85
g121
tp2483
(I600
I600
tp2484
s(g81
g18
tp2485
(I600
I600
tp2486
s(g63
g29
tp2487
(I401
I401
tp2488
s(g35
g78
tp2489
(I736
I151
tp2490
s(g56
g176
tp2491
(I240
I190
tp2492
s(g57
g244
tp2493
(I597
I537
tp2494
s(g21
g78
tp2495
(I451
I421
tp2496
s(g47
g22
tp2497
(I360
I560
tp2498
s(g60
g17
tp2499
(I984
I14
tp2500
s(g18
g35
tp2501
(I600
I600
tp2502
s(g25
g51
tp2503
(I978
I23
tp2504
s(g125
g160
tp2505
(I617
I572
tp2506
s(g125
g9
tp2507
(I600
I600
tp2508
s(g169
g183
tp2509
(I800
I300
tp2510
s(g35
g25
tp2511
(I600
I600
tp2512
s(g14
g160
tp2513
(I981
I26
tp2514
s(g28
g17
tp2515
(I471
I571
tp2516
s(g56
g48
tp2517
(I204
I199
tp2518
s(g14
g92
tp2519
(I600
I600
tp2520
s(g48
g163
tp2521
(I600
I600
tp2522
s(g166
g121
tp2523
(I600
I600
tp2524
s(g18
g176
tp2525
(I600
I600
tp2526
s(g63
g176
tp2527
(I600
I600
tp2528
s(g21
g103
tp2529
(I600
I600
tp2530
s(g63
g93
tp2531
(I0
I1000
tp2532
s(g92
g32
tp2533
(I0
I1000
tp2534
s(g88
g36
tp2535
(I0
I1000
tp2536
s(g160
g227
tp2537
(I602
I597
tp2538
s(g60
g163
tp2539
(I600
I600
tp2540
s(g36
g93
tp2541
(I600
I600
tp2542
s(g85
g14
tp2543
(I600
I600
tp2544
s(g166
g227
tp2545
(I234
I239
tp2546
s(g88
g103
tp2547
(I600
I600
tp2548
s(g88
g29
tp2549
(I203
I203
tp2550
s(g41
g78
tp2551
(I0
I1000
tp2552
s(g84
g28
tp2553
(I600
I600
tp2554
s(g141
g121
tp2555
(I600
I600
tp2556
s(g100
g13
tp2557
(I99
I879
tp2558
s(g85
g78
tp2559
(I411
I476
tp2560
s(g89
g103
tp2561
(I600
I600
tp2562
s(g69
g78
tp2563
(I11
I981
tp2564
s(g41
g41
tp2565
(I598
I598
tp2566
s(g28
g57
tp2567
(I600
I600
tp2568
s(g35
g188
tp2569
(I735
I330
tp2570
s(g64
g25
tp2571
(I600
I600
tp2572
s(g89
g18
tp2573
(I600
I600
tp2574
s(g77
g166
tp2575
(I600
I600
tp2576
s(g69
g10
tp2577
(I600
I600
tp2578
s(g89
g121
tp2579
(I600
I600
tp2580
s(g84
g84
tp2581
(I600
I600
tp2582
s(g56
g41
tp2583
(I1000
I0
tp2584
s(g63
g85
tp2585
(I600
I600
tp2586
s(g81
g125
tp2587
(I600
I600
tp2588
s(g64
g10
tp2589
(I600
I600
tp2590
s(g100
g128
tp2591
(I0
I1000
tp2592
s(g41
g14
tp2593
(I173
I858
tp2594
s(g100
g17
tp2595
(I986
I11
tp2596
s(g77
g128
tp2597
(I0
I1000
tp2598
s(g244
g22
tp2599
(I337
I662
tp2600
s(g160
g93
tp2601
(I0
I1000
tp2602
s(g60
g29
tp2603
(I597
I602
tp2604
s(g183
g227
tp2605
(I6
I996
tp2606
s(g63
g100
tp2607
(I267
I602
tp2608
s(g69
g176
tp2609
(I600
I600
tp2610
s(g47
g163
tp2611
(I30
I965
tp2612
s(g63
g227
tp2613
(I600
I600
tp2614
s(g29
g25
tp2615
(I401
I401
tp2616
s(g85
g32
tp2617
(I0
I1000
tp2618
s(g100
g166
tp2619
(I514
I479
tp2620
s(g81
g13
tp2621
(I600
I600
tp2622
s(g21
g124
tp2623
(I600
I600
tp2624
s(g56
g47
tp2625
(I996
I1
tp2626
s(g244
g244
tp2627
(I596
I596
tp2628
s(g18
g42
tp2629
(I0
I1000
tp2630
s(g18
g93
tp2631
(I0
I1000
tp2632
s(g88
g141
tp2633
(I600
I600
tp2634
s(g22
g42
tp2635
(I0
I1000
tp2636
s(g14
g244
tp2637
(I574
I144
tp2638
s(g56
g100
tp2639
(I1000
I0
tp2640
s(g103
g188
tp2641
(I965
I35
tp2642
s(g85
g10
tp2643
(I600
I600
tp2644
s(g74
g128
tp2645
(I0
I1000
tp2646
s(g47
g244
tp2647
(I452
I447
tp2648
s(g56
g10
tp2649
(I208
I198
tp2650
s(g64
g51
tp2651
(I989
I9
tp2652
s(g166
g74
tp2653
(I600
I600
tp2654
s(g89
g89
tp2655
(I600
I600
tp2656
s(g169
g84
tp2657
(I114
I594
tp2658
s(g89
g125
tp2659
(I600
I600
tp2660
s(g41
g124
tp2661
(I602
I587
tp2662
s(g60
g10
tp2663
(I600
I600
tp2664
s(g166
g188
tp2665
(I447
I577
tp2666
s(g141
g227
tp2667
(I600
I600
tp2668
s(g84
g47
tp2669
(I0
I1000
tp2670
s(g35
g57
tp2671
(I600
I600
tp2672
s(g41
g25
tp2673
(I600
I595
tp2674
s(g183
g10
tp2675
(I600
I600
tp2676
s(g63
g141
tp2677
(I600
I600
tp2678
s(g169
g56
tp2679
(I100
I600
tp2680
s(g60
g110
tp2681
(I984
I14
tp2682
s(g64
g14
tp2683
(I600
I600
tp2684
s(g84
g166
tp2685
(I600
I600
tp2686
s(g69
g64
tp2687
(I600
I600
tp2688
s(g81
g9
tp2689
(I600
I600
tp2690
s(g89
g13
tp2691
(I600
I600
tp2692
s(g227
g227
tp2693
(I600
I600
tp2694
s(g244
g188
tp2695
(I996
I6
tp2696
s(g17
g17
tp2697
(I466
I466
tp2698
s(g69
g48
tp2699
(I600
I600
tp2700
s(g183
g63
tp2701
(I600
I600
tp2702
s(g29
g227
tp2703
(I243
I238
tp2704
s(g47
g124
tp2705
(I474
I459
tp2706
s(g56
g244
tp2707
(I600
I100
tp2708
s(g244
g25
tp2709
(I600
I595
tp2710
s(g60
g166
tp2711
(I600
I600
tp2712
s(g25
g121
tp2713
(I600
I600
tp2714
s(g48
g124
tp2715
(I600
I600
tp2716
s(g60
g160
tp2717
(I597
I602
tp2718
s(g13
g176
tp2719
(I600
I600
tp2720
s(g17
g78
tp2721
(I0
I1000
tp2722
s(g88
g85
tp2723
(I600
I600
tp2724
s(g88
g74
tp2725
(I600
I600
tp2726
s(g77
g13
tp2727
(I600
I600
tp2728
s(g47
g121
tp2729
(I400
I400
tp2730
s(g25
g42
tp2731
(I0
I1000
tp2732
s(g183
g29
tp2733
(I597
I602
tp2734
s(g51
g128
tp2735
(I0
I1000
tp2736
s(g21
g14
tp2737
(I600
I600
tp2738
s(g13
g160
tp2739
(I601
I596
tp2740
s(g18
g227
tp2741
(I600
I600
tp2742
s(g166
g141
tp2743
(I600
I600
tp2744
s(g141
g92
tp2745
(I600
I600
tp2746
s(g176
g121
tp2747
(I600
I600
tp2748
s(g63
g125
tp2749
(I600
I600
tp2750
s(g47
g166
tp2751
(I516
I476
tp2752
s(g110
g93
tp2753
(I0
I1000
tp2754
s(g28
g163
tp2755
(I600
I600
tp2756
s(g21
g128
tp2757
(I0
I1000
tp2758
s(g163
g74
tp2759
(I600
I600
tp2760
s(g169
g81
tp2761
(I503
I498
tp2762
s(g69
g36
tp2763
(I0
I1000
tp2764
s(g183
g93
tp2765
(I0
I1000
tp2766
s(g56
g166
tp2767
(I244
I189
tp2768
s(g169
g100
tp2769
(I400
I400
tp2770
s(g64
g35
tp2771
(I600
I600
tp2772
s(g64
g141
tp2773
(I600
I600
tp2774
s(g64
g36
tp2775
(I0
I1000
tp2776
s(g88
g244
tp2777
(I595
I110
tp2778
s(g29
g36
tp2779
(I0
I1000
tp2780
s(g17
g35
tp2781
(I280
I775
tp2782
s(g60
g57
tp2783
(I600
I600
tp2784
s(g141
g42
tp2785
(I0
I1000
tp2786
s(g100
g25
tp2787
(I602
I267
tp2788
s(g110
g42
tp2789
(I0
I1000
tp2790
s(g47
g89
tp2791
(I450
I450
tp2792
s(g77
g227
tp2793
(I600
I600
tp2794
s(g183
g166
tp2795
(I600
I600
tp2796
s(g77
g163
tp2797
(I600
I600
tp2798
s(g160
g42
tp2799
(I1
I996
tp2800
s(g9
g92
tp2801
(I600
I600
tp2802
s(g84
g163
tp2803
(I600
I600
tp2804
s(g60
g9
tp2805
(I600
I600
tp2806
s(g169
g169
tp2807
(I400
I400
tp2808
s(g51
g74
tp2809
(I500
I500
tp2810
s(g78
g227
tp2811
(I906
I86
tp2812
s(g13
g163
tp2813
(I600
I600
tp2814
s(g124
g32
tp2815
(I0
I1000
tp2816
ssb.