ccopy_reg
_reconstructor
p1
(caxelrod.tournament_manager
DeterministicCache
p2
c__builtin__
object
p3
NtRp4
(dp5
S'turns'
p6
I200
sS'cache'
p7
(dp8
(caxelrod.strategies.punisher
InversePunisher
p9
caxelrod.strategies.memoryone
WinStayLoseShift
p10
tp11
(I400
I400
tp12
s(caxelrod.strategies.hunter
CooperatorHunter
p13
caxelrod.strategies.mindreader
ProtectedMindReader
p14
tp15
(I1000
I0
tp16
s(g13
caxelrod.strategies.titfortat
SuspiciousTitForTat
p17
tp18
(I1000
I0
tp19
s(caxelrod.strategies.mathematicalconstants
Golden
p20
caxelrod.strategies.mindcontrol
MindController
p21
tp22
(I1000
I0
tp23
s(caxelrod.strategies.retaliate
Retaliate3
p24
g24
tp25
(I400
I400
tp26
s(caxelrod.strategies.gobymajority
GoByMajority20
p27
caxelrod.strategies.gobymajority
GoByMajority40
p28
tp29
(I400
I400
tp30
s(caxelrod.strategies.oncebitten
FoolMeOnce
p31
caxelrod.strategies.mindcontrol
MindBender
p32
tp33
(I1000
I0
tp34
s(caxelrod.strategies.hunter
MathConstantHunter
p35
caxelrod.strategies.punisher
Punisher
p36
tp37
(I400
I400
tp38
s(caxelrod.strategies.forgiver
ForgivingTitForTat
p39
g39
tp40
(I400
I400
tp41
s(g36
g17
tp42
(I273
I778
tp43
s(caxelrod.strategies.retaliate
LimitedRetaliate
p44
g36
tp45
(I400
I400
tp46
s(caxelrod.strategies.oncebitten
OnceBitten
p47
caxelrod.strategies.titfortat
TitFor2Tats
p48
tp49
(I400
I400
tp50
s(g27
caxelrod.strategies.grumpy
Grumpy
p51
tp52
(I400
I400
tp53
s(g39
caxelrod.strategies.retaliate
LimitedRetaliate3
p54
tp55
(I400
I400
tp56
s(g36
caxelrod.strategies.geller
GellerCooperator
p57
tp58
(I400
I400
tp59
s(caxelrod.strategies.hunter
DefectorHunter
p60
g10
tp61
(I400
I400
tp62
s(g39
caxelrod.strategies.titfortat
TwoTitsForTat
p63
tp64
(I400
I400
tp65
s(caxelrod.strategies.forgiver
Forgiver
p66
caxelrod.strategies.mathematicalconstants
Pi
p67
tp68
(I336
I546
tp69
s(caxelrod.strategies.grudger
Grudger
p70
g67
tp71
(I11
I991
tp72
s(caxelrod.strategies.grudger
OppositeGrudger
p73
caxelrod.strategies.geller
GellerDefector
p74
tp75
(I800
I800
tp76
s(caxelrod.strategies.gobymajority
GoByMajority
p77
g10
tp78
(I400
I400
tp79
s(g48
caxelrod.strategies.darwin
Darwin
p80
tp81
(I526
I521
tp82
s(caxelrod.strategies.appeaser
Appeaser
p83
g10
tp84
(I400
I400
tp85
s(g39
g10
tp86
(I400
I400
tp87
s(g47
g36
tp88
(I400
I400
tp89
s(g60
g73
tp90
(I403
I398
tp91
s(g44
g14
tp92
(I1000
I0
tp93
s(caxelrod.strategies.cooperator
TrickyCooperator
p94
caxelrod.strategies.mindreader
MindReader
p95
tp96
(I1000
I0
tp97
s(g94
g94
tp98
(I436
I436
tp99
s(caxelrod.strategies.mathematicalconstants
e
p100
g14
tp101
(I1000
I0
tp102
s(g47
caxelrod.strategies.defector
TrickyDefector
p103
tp104
(I354
I764
tp105
s(g27
g103
tp106
(I549
I579
tp107
s(caxelrod.strategies.defector
Defector
p108
g51
tp109
(I756
I811
tp110
s(caxelrod.strategies.alternator
Alternator
p111
g74
tp112
(I600
I600
tp113
s(g60
g66
tp114
(I400
I400
tp115
s(g35
caxelrod.strategies.mindcontrol
MindWarper
p116
tp117
(I1000
I0
tp118
s(g27
g27
tp119
(I400
I400
tp120
s(g13
g54
tp121
(I460
I365
tp122
s(g10
g21
tp123
(I1000
I0
tp124
s(g111
g57
tp125
(I600
I600
tp126
s(caxelrod.strategies.hunter
MetaHunter
p127
g24
tp128
(I400
I400
tp129
s(caxelrod.strategies.cooperator
Cooperator
p130
g32
tp131
(I1000
I0
tp132
s(caxelrod.strategies.hunter
RandomHunter
p133
g17
tp134
(I1000
I0
tp135
s(g83
g28
tp136
(I400
I400
tp137
s(g32
g14
tp138
(I0
I1000
tp139
s(caxelrod.strategies.gobymajority
GoByMajority10
p140
g24
tp141
(I400
I400
tp142
s(caxelrod.strategies.hunter
AlternatorHunter
p143
g94
tp144
(I991
I6
tp145
s(g103
g74
tp146
(I800
I800
tp147
s(caxelrod.strategies.titfortat
TitForTat
p148
g94
tp149
(I450
I445
tp150
s(caxelrod.strategies.titfortat
SneakyTitForTat
p151
g14
tp152
(I1000
I0
tp153
s(g73
g10
tp154
(I995
I5
tp155
s(g54
g21
tp156
(I1000
I0
tp157
s(g70
caxelrod.strategies.retaliate
Retaliate2
p158
tp159
(I400
I400
tp160
s(g111
g51
tp161
(I200
I700
tp162
s(g70
g94
tp163
(I15
I985
tp164
s(g111
g35
tp165
(I872
I412
tp166
s(g140
caxelrod.strategies.retaliate
Retaliate
p167
tp168
(I400
I400
tp169
s(g95
g116
tp170
(I400
I400
tp171
s(g17
g32
tp172
(I999
I4
tp173
s(g148
g39
tp174
(I400
I400
tp175
s(g63
g32
tp176
(I1000
I0
tp177
s(g111
g47
tp178
(I200
I700
tp179
s(g111
caxelrod.strategies.gobymajority
GoByMajority5
p180
tp181
(I491
I506
tp182
s(g103
g32
tp183
(I999
I4
tp184
s(g167
g74
tp185
(I400
I400
tp186
s(g60
g48
tp187
(I400
I400
tp188
s(g111
g20
tp189
(I336
I666
tp190
s(g108
g54
tp191
(I760
I810
tp192
s(g133
g24
tp193
(I400
I400
tp194
s(g31
g31
tp195
(I400
I400
tp196
s(g140
g73
tp197
(I401
I401
tp198
s(g54
g57
tp199
(I400
I400
tp200
s(g143
g95
tp201
(I1000
I0
tp202
s(g133
g95
tp203
(I1000
I0
tp204
s(g47
g74
tp205
(I400
I400
tp206
s(g127
g32
tp207
(I1000
I0
tp208
s(g44
g94
tp209
(I265
I670
tp210
s(g143
g57
tp211
(I400
I400
tp212
s(g130
g10
tp213
(I400
I400
tp214
s(g108
g103
tp215
(I800
I800
tp216
s(g143
g35
tp217
(I400
I400
tp218
s(g108
g83
tp219
(I400
I900
tp220
s(g108
g70
tp221
(I796
I801
tp222
s(g27
g127
tp223
(I400
I400
tp224
s(g54
g32
tp225
(I1000
I0
tp226
s(g35
g95
tp227
(I1000
I0
tp228
s(caxelrod.strategies.grudger
ForgetfulGrudger
p229
g167
tp230
(I400
I400
tp231
s(g74
g21
tp232
(I1000
I0
tp233
s(g100
g74
tp234
(I500
I500
tp235
s(g148
g140
tp236
(I400
I400
tp237
s(g158
g94
tp238
(I243
I698
tp239
s(g47
g21
tp240
(I1000
I0
tp241
s(g130
g158
tp242
(I400
I400
tp243
s(g180
g116
tp244
(I1000
I0
tp245
s(g44
g54
tp246
(I400
I400
tp247
s(g24
g100
tp248
(I217
I692
tp249
s(g13
g27
tp250
(I398
I413
tp251
s(g20
g70
tp252
(I991
I11
tp253
s(g36
g95
tp254
(I1000
I0
tp255
s(g10
g14
tp256
(I1000
I0
tp257
s(g167
g57
tp258
(I400
I400
tp259
s(g83
caxelrod.strategies.retaliate
LimitedRetaliate2
p260
tp261
(I400
I400
tp262
s(g143
g74
tp263
(I400
I400
tp264
s(g17
g100
tp265
(I0
I1000
tp266
s(g13
g73
tp267
(I403
I398
tp268
s(g143
g70
tp269
(I400
I400
tp270
s(g44
g67
tp271
(I284
I599
tp272
s(g66
g47
tp273
(I400
I400
tp274
s(g148
g95
tp275
(I1000
I0
tp276
s(g229
g36
tp277
(I400
I400
tp278
s(g57
g14
tp279
(I1000
I0
tp280
s(g100
g21
tp281
(I1000
I0
tp282
s(g67
g167
tp283
(I599
I284
tp284
s(g13
g66
tp285
(I442
I377
tp286
s(g111
g108
tp287
(I900
I400
tp288
s(g60
g94
tp289
(I991
I6
tp290
s(g13
g28
tp291
(I398
I413
tp292
s(g13
g167
tp293
(I430
I385
tp294
s(g13
g57
tp295
(I402
I402
tp296
s(g151
g100
tp297
(I451
I451
tp298
s(g167
g80
tp299
(I400
I400
tp300
s(g48
g21
tp301
(I1000
I0
tp302
s(g140
g9
tp303
(I400
I400
tp304
s(g180
g48
tp305
(I400
I400
tp306
s(g133
g94
tp307
(I35
I965
tp308
s(g83
g77
tp309
(I400
I400
tp310
s(g66
g151
tp311
(I405
I890
tp312
s(g143
g44
tp313
(I400
I400
tp314
s(g70
g21
tp315
(I1000
I0
tp316
s(g103
g57
tp317
(I800
I800
tp318
s(g60
g47
tp319
(I400
I400
tp320
s(g77
g133
tp321
(I400
I400
tp322
s(g148
g31
tp323
(I400
I400
tp324
s(g133
g133
tp325
(I400
I400
tp326
s(g180
g47
tp327
(I400
I400
tp328
s(g229
g44
tp329
(I400
I400
tp330
s(g73
g32
tp331
(I999
I4
tp332
s(g229
g94
tp333
(I265
I670
tp334
s(g32
g21
tp335
(I0
I1000
tp336
s(g48
g10
tp337
(I400
I400
tp338
s(g9
g100
tp339
(I224
I684
tp340
s(g151
g95
tp341
(I1000
I0
tp342
s(g73
g36
tp343
(I461
I361
tp344
s(g20
g100
tp345
(I140
I795
tp346
s(g83
g24
tp347
(I400
I400
tp348
s(g158
g151
tp349
(I403
I463
tp350
s(g31
g167
tp351
(I400
I400
tp352
s(g9
g57
tp353
(I400
I400
tp354
s(g77
g73
tp355
(I401
I401
tp356
s(g100
g100
tp357
(I500
I500
tp358
s(g151
g94
tp359
(I4
I994
tp360
s(g39
g57
tp361
(I400
I400
tp362
s(g47
g116
tp363
(I1000
I0
tp364
s(g39
g116
tp365
(I1000
I0
tp366
s(g229
g66
tp367
(I400
I400
tp368
s(g180
g127
tp369
(I400
I400
tp370
s(g180
g158
tp371
(I400
I400
tp372
s(g140
g28
tp373
(I400
I400
tp374
s(g51
g14
tp375
(I1000
I0
tp376
s(g51
g17
tp377
(I524
I484
tp378
s(g260
g116
tp379
(I1000
I0
tp380
s(g229
g73
tp381
(I381
I431
tp382
s(g73
g17
tp383
(I991
I11
tp384
s(g27
g158
tp385
(I400
I400
tp386
s(g28
g28
tp387
(I400
I400
tp388
s(g66
g63
tp389
(I400
I400
tp390
s(g35
g133
tp391
(I400
I400
tp392
s(g32
g32
tp393
(I0
I1000
tp394
s(g148
g51
tp395
(I400
I400
tp396
s(g108
g31
tp397
(I792
I802
tp398
s(g100
g95
tp399
(I1000
I0
tp400
s(g44
g158
tp401
(I400
I400
tp402
s(g158
g17
tp403
(I141
I886
tp404
s(g180
g14
tp405
(I1000
I0
tp406
s(g73
g80
tp407
(I398
I403
tp408
s(g229
g35
tp409
(I400
I400
tp410
s(g73
g73
tp411
(I800
I800
tp412
s(g48
g14
tp413
(I1000
I0
tp414
s(g70
g47
tp415
(I400
I400
tp416
s(g180
g63
tp417
(I400
I400
tp418
s(g140
g67
tp419
(I626
I256
tp420
s(g229
g10
tp421
(I400
I400
tp422
s(g229
g48
tp423
(I400
I400
tp424
s(g108
g14
tp425
(I1000
I0
tp426
s(g180
g180
tp427
(I400
I400
tp428
s(g83
g127
tp429
(I400
I400
tp430
s(g77
g24
tp431
(I400
I400
tp432
s(g66
g158
tp433
(I400
I400
tp434
s(g44
g103
tp435
(I264
I849
tp436
s(g63
g10
tp437
(I400
I400
tp438
s(g70
g24
tp439
(I400
I400
tp440
s(g130
g57
tp441
(I400
I400
tp442
s(g143
g17
tp443
(I1000
I0
tp444
s(g100
g80
tp445
(I668
I333
tp446
s(g9
g54
tp447
(I400
I400
tp448
s(g28
g48
tp449
(I400
I400
tp450
s(g66
g27
tp451
(I400
I400
tp452
s(g9
g17
tp453
(I130
I895
tp454
s(g77
g57
tp455
(I400
I400
tp456
s(g28
g158
tp457
(I400
I400
tp458
s(g44
g95
tp459
(I1000
I0
tp460
s(g167
g100
tp461
(I249
I654
tp462
s(g140
g36
tp463
(I400
I400
tp464
s(g103
g103
tp465
(I800
I800
tp466
s(g127
g158
tp467
(I400
I400
tp468
s(g180
g80
tp469
(I751
I741
tp470
s(g20
g116
tp471
(I1000
I0
tp472
s(g180
g133
tp473
(I400
I400
tp474
s(g151
g116
tp475
(I1000
I0
tp476
s(g95
g95
tp477
(I1000
I0
tp478
s(g140
g57
tp479
(I400
I400
tp480
s(g108
g24
tp481
(I796
I801
tp482
s(g167
g151
tp483
(I391
I856
tp484
s(g47
g63
tp485
(I400
I400
tp486
s(g130
g27
tp487
(I400
I400
tp488
s(g13
g103
tp489
(I1000
I0
tp490
s(g67
g151
tp491
(I441
I441
tp492
s(g66
g260
tp493
(I400
I400
tp494
s(g180
g260
tp495
(I400
I400
tp496
s(g20
g67
tp497
(I140
I795
tp498
s(g66
g167
tp499
(I400
I400
tp500
s(g83
g20
tp501
(I33
I968
tp502
s(g116
g14
tp503
(I400
I400
tp504
s(g20
g151
tp505
(I468
I468
tp506
s(g108
g116
tp507
(I1000
I0
tp508
s(g111
g100
tp509
(I204
I699
tp510
s(g13
g13
tp511
(I402
I402
tp512
s(g130
g74
tp513
(I400
I400
tp514
s(g167
g48
tp515
(I400
I400
tp516
s(g44
g35
tp517
(I400
I400
tp518
s(g39
g32
tp519
(I1000
I0
tp520
s(g100
g32
tp521
(I1000
I0
tp522
s(g67
g94
tp523
(I2
I997
tp524
s(g70
g63
tp525
(I400
I400
tp526
s(g35
g74
tp527
(I400
I400
tp528
s(g140
g54
tp529
(I400
I400
tp530
s(g60
g167
tp531
(I400
I400
tp532
s(g70
g95
tp533
(I1000
I0
tp534
s(g13
g94
tp535
(I991
I6
tp536
s(g54
g80
tp537
(I400
I400
tp538
s(g35
g63
tp539
(I400
I400
tp540
s(g130
g35
tp541
(I400
I400
tp542
s(g133
g103
tp543
(I1000
I0
tp544
s(g39
g73
tp545
(I401
I401
tp546
s(g103
g100
tp547
(I0
I1000
tp548
s(g108
g140
tp549
(I796
I801
tp550
s(g66
g100
tp551
(I297
I607
tp552
s(g28
g94
tp553
(I573
I368
tp554
s(g83
g13
tp555
(I405
I400
tp556
s(g39
g24
tp557
(I400
I400
tp558
s(g36
g10
tp559
(I400
I400
tp560
s(g111
g130
tp561
(I200
I700
tp562
s(g20
g47
tp563
(I659
I279
tp564
s(g77
g167
tp565
(I400
I400
tp566
s(g148
g80
tp567
(I795
I795
tp568
s(g77
g70
tp569
(I400
I400
tp570
s(g48
g63
tp571
(I400
I400
tp572
s(g83
g116
tp573
(I1000
I0
tp574
s(g44
g74
tp575
(I400
I400
tp576
s(g148
g133
tp577
(I400
I400
tp578
s(g67
g100
tp579
(I696
I206
tp580
s(g100
g116
tp581
(I1000
I0
tp582
s(g17
g94
tp583
(I0
I1000
tp584
s(g260
g95
tp585
(I1000
I0
tp586
s(g108
g9
tp587
(I796
I801
tp588
s(g36
g21
tp589
(I1000
I0
tp590
s(g28
g103
tp591
(I512
I632
tp592
s(g17
g63
tp593
(I640
I440
tp594
s(g73
g48
tp595
(I398
I403
tp596
s(g39
g133
tp597
(I400
I400
tp598
s(g13
g31
tp599
(I977
I22
tp600
s(g130
g17
tp601
(I1000
I0
tp602
s(g13
g151
tp603
(I994
I4
tp604
s(g66
g21
tp605
(I1000
I0
tp606
s(g17
g80
tp607
(I676
I326
tp608
s(g111
g70
tp609
(I893
I403
tp610
s(g10
g10
tp611
(I400
I400
tp612
s(g130
g80
tp613
(I994
I4
tp614
s(g229
g103
tp615
(I302
I827
tp616
s(g13
g95
tp617
(I1000
I0
tp618
s(g108
g28
tp619
(I796
I801
tp620
s(g260
g94
tp621
(I243
I698
tp622
s(g51
g47
tp623
(I400
I400
tp624
s(g229
g27
tp625
(I400
I400
tp626
s(g31
g77
tp627
(I400
I400
tp628
s(g77
g9
tp629
(I400
I400
tp630
s(g130
g44
tp631
(I400
I400
tp632
s(g111
g158
tp633
(I865
I410
tp634
s(g9
g94
tp635
(I189
I769
tp636
s(g260
g10
tp637
(I400
I400
tp638
s(g73
g24
tp639
(I458
I363
tp640
s(g260
g14
tp641
(I1000
I0
tp642
s(g180
g21
tp643
(I1000
I0
tp644
s(g35
g167
tp645
(I400
I400
tp646
s(g36
g100
tp647
(I319
I584
tp648
s(g229
g140
tp649
(I400
I400
tp650
s(g111
g44
tp651
(I857
I412
tp652
s(g148
g229
tp653
(I400
I400
tp654
s(g24
g151
tp655
(I398
I873
tp656
s(g130
g95
tp657
(I1000
I0
tp658
s(g31
g17
tp659
(I14
I989
tp660
s(g103
g10
tp661
(I400
I900
tp662
s(g27
g20
tp663
(I592
I347
tp664
s(g9
g103
tp665
(I283
I838
tp666
s(g51
g80
tp667
(I392
I587
tp668
s(g127
g36
tp669
(I400
I400
tp670
s(g27
g47
tp671
(I400
I400
tp672
s(g35
g80
tp673
(I400
I400
tp674
s(g108
g229
tp675
(I796
I801
tp676
s(g130
g48
tp677
(I400
I400
tp678
s(g60
g180
tp679
(I400
I400
tp680
s(g28
g21
tp681
(I1000
I0
tp682
s(g103
g21
tp683
(I1000
I0
tp684
s(g35
g17
tp685
(I1000
I0
tp686
s(g229
g151
tp687
(I394
I859
tp688
s(g31
g116
tp689
(I1000
I0
tp690
s(g143
g180
tp691
(I400
I400
tp692
s(g70
g133
tp693
(I400
I400
tp694
s(g31
g14
tp695
(I1000
I0
tp696
s(g127
g95
tp697
(I1000
I0
tp698
s(g9
g67
tp699
(I257
I632
tp700
s(g66
g103
tp701
(I93
I948
tp702
s(g83
g60
tp703
(I400
I400
tp704
s(g13
g24
tp705
(I460
I365
tp706
s(g47
g32
tp707
(I1000
I0
tp708
s(g148
g83
tp709
(I400
I400
tp710
s(g57
g95
tp711
(I1000
I0
tp712
s(g73
g14
tp713
(I1000
I0
tp714
s(g31
g151
tp715
(I406
I886
tp716
s(g111
g32
tp717
(I1000
I0
tp718
s(g27
g67
tp719
(I626
I256
tp720
s(g148
g60
tp721
(I400
I400
tp722
s(g83
g57
tp723
(I400
I400
tp724
s(g103
g116
tp725
(I1000
I0
tp726
s(g77
g151
tp727
(I408
I403
tp728
s(g54
g167
tp729
(I400
I400
tp730
s(g51
g21
tp731
(I1000
I0
tp732
s(g130
g66
tp733
(I400
I400
tp734
s(g108
g180
tp735
(I796
I801
tp736
s(g28
g20
tp737
(I600
I335
tp738
s(g20
g94
tp739
(I2
I997
tp740
s(g127
g80
tp741
(I400
I400
tp742
s(g80
g14
tp743
(I1000
I0
tp744
s(g130
g39
tp745
(I400
I400
tp746
s(g60
g151
tp747
(I994
I4
tp748
s(g133
g116
tp749
(I1000
I0
tp750
s(g83
g80
tp751
(I400
I400
tp752
s(g9
g74
tp753
(I400
I400
tp754
s(g143
g127
tp755
(I400
I400
tp756
s(g111
g39
tp757
(I497
I502
tp758
s(g130
g94
tp759
(I991
I6
tp760
s(g130
g133
tp761
(I400
I400
tp762
s(g127
g103
tp763
(I32
I977
tp764
s(g83
g229
tp765
(I400
I400
tp766
s(g167
g103
tp767
(I264
I849
tp768
s(g47
g67
tp769
(I586
I296
tp770
s(g63
g80
tp771
(I667
I667
tp772
s(g167
g116
tp773
(I1000
I0
tp774
s(g127
g73
tp775
(I19
I974
tp776
s(g111
g54
tp777
(I862
I417
tp778
s(g39
g48
tp779
(I400
I400
tp780
s(g229
g95
tp781
(I1000
I0
tp782
s(g31
g140
tp783
(I400
I400
tp784
s(g73
g158
tp785
(I437
I377
tp786
s(g158
g24
tp787
(I400
I400
tp788
s(g143
g39
tp789
(I400
I400
tp790
s(g151
g80
tp791
(I730
I510
tp792
s(g130
g77
tp793
(I400
I400
tp794
s(g229
g47
tp795
(I400
I400
tp796
s(g127
g67
tp797
(I41
I961
tp798
s(g133
g48
tp799
(I400
I400
tp800
s(g111
g63
tp801
(I893
I403
tp802
s(g70
g74
tp803
(I400
I400
tp804
s(g180
g24
tp805
(I400
I400
tp806
s(g180
g44
tp807
(I400
I400
tp808
s(g13
g35
tp809
(I827
I142
tp810
s(g39
g14
tp811
(I1000
I0
tp812
s(g27
g80
tp813
(I781
I731
tp814
s(g143
g48
tp815
(I400
I400
tp816
s(g143
g10
tp817
(I400
I400
tp818
s(g116
g116
tp819
(I1000
I0
tp820
s(g36
g133
tp821
(I400
I400
tp822
s(g31
g95
tp823
(I1000
I0
tp824
s(g108
g60
tp825
(I784
I804
tp826
s(g130
g67
tp827
(I997
I2
tp828
s(g133
g63
tp829
(I400
I400
tp830
s(g108
g80
tp831
(I792
I802
tp832
s(g70
g70
tp833
(I400
I400
tp834
s(g77
g158
tp835
(I400
I400
tp836
s(g111
g95
tp837
(I1000
I0
tp838
s(g51
g44
tp839
(I400
I400
tp840
s(g260
g167
tp841
(I400
I400
tp842
s(g27
g167
tp843
(I400
I400
tp844
s(g180
g70
tp845
(I400
I400
tp846
s(g77
g35
tp847
(I400
I400
tp848
s(g180
g74
tp849
(I400
I400
tp850
s(g140
g140
tp851
(I400
I400
tp852
s(g229
g158
tp853
(I400
I400
tp854
s(g143
g73
tp855
(I403
I398
tp856
s(g83
g180
tp857
(I400
I400
tp858
s(g111
g103
tp859
(I900
I400
tp860
s(g148
g13
tp861
(I403
I403
tp862
s(g66
g24
tp863
(I400
I400
tp864
s(g36
g151
tp865
(I383
I828
tp866
s(g60
g127
tp867
(I400
I400
tp868
s(g20
g44
tp869
(I720
I225
tp870
s(g20
g74
tp871
(I534
I534
tp872
s(g143
g66
tp873
(I400
I400
tp874
s(g20
g73
tp875
(I139
I794
tp876
s(g143
g28
tp877
(I400
I400
tp878
s(g108
g167
tp879
(I796
I801
tp880
s(g13
g77
tp881
(I398
I413
tp882
s(g54
g95
tp883
(I1000
I0
tp884
s(g229
g24
tp885
(I400
I400
tp886
s(g83
g31
tp887
(I400
I400
tp888
s(g9
g47
tp889
(I400
I400
tp890
s(g130
g127
tp891
(I400
I400
tp892
s(g13
g229
tp893
(I430
I385
tp894
s(g31
g27
tp895
(I400
I400
tp896
s(g260
g48
tp897
(I400
I400
tp898
s(g27
g48
tp899
(I400
I400
tp900
s(g180
g35
tp901
(I400
I400
tp902
s(g20
g32
tp903
(I1000
I0
tp904
s(g108
g73
tp905
(I800
I800
tp906
s(g73
g103
tp907
(I800
I800
tp908
s(g9
g260
tp909
(I400
I400
tp910
s(g60
g14
tp911
(I1000
I0
tp912
s(g31
g158
tp913
(I400
I400
tp914
s(g13
g116
tp915
(I1000
I0
tp916
s(g111
g66
tp917
(I893
I403
tp918
s(g140
g95
tp919
(I1000
I0
tp920
s(g148
g20
tp921
(I468
I468
tp922
s(g151
g21
tp923
(I1000
I0
tp924
s(g140
g70
tp925
(I400
I400
tp926
s(g28
g32
tp927
(I1000
I0
tp928
s(g83
g14
tp929
(I1000
I0
tp930
s(g39
g95
tp931
(I1000
I0
tp932
s(g67
g95
tp933
(I1000
I0
tp934
s(g13
g260
tp935
(I439
I379
tp936
s(g133
g57
tp937
(I400
I400
tp938
s(g229
g14
tp939
(I1000
I0
tp940
s(g20
g51
tp941
(I353
I588
tp942
s(g167
g17
tp943
(I174
I859
tp944
s(g103
g80
tp945
(I314
I694
tp946
s(g31
g133
tp947
(I400
I400
tp948
s(g77
g14
tp949
(I1000
I0
tp950
s(g148
g32
tp951
(I1000
I0
tp952
s(g73
g116
tp953
(I1000
I0
tp954
s(g57
g32
tp955
(I999
I4
tp956
s(g111
g9
tp957
(I829
I419
tp958
s(g77
g20
tp959
(I633
I303
tp960
s(g24
g14
tp961
(I1000
I0
tp962
s(g35
g48
tp963
(I400
I400
tp964
s(g180
g94
tp965
(I460
I460
tp966
s(g21
g21
tp967
(I1000
I0
tp968
s(g13
g60
tp969
(I8
I988
tp970
s(g83
g48
tp971
(I400
I400
tp972
s(g47
g94
tp973
(I292
I652
tp974
s(g28
g47
tp975
(I400
I400
tp976
s(g143
g36
tp977
(I400
I400
tp978
s(g148
g36
tp979
(I400
I400
tp980
s(g39
g74
tp981
(I400
I400
tp982
s(g148
g127
tp983
(I400
I400
tp984
s(g48
g103
tp985
(I690
I540
tp986
s(g39
g21
tp987
(I1000
I0
tp988
s(g36
g14
tp989
(I1000
I0
tp990
s(g47
g158
tp991
(I400
I400
tp992
s(g27
g21
tp993
(I1000
I0
tp994
s(g32
g95
tp995
(I0
I1000
tp996
s(g130
g148
tp997
(I400
I400
tp998
s(g108
g47
tp999
(I792
I802
tp1000
s(g47
g14
tp1001
(I1000
I0
tp1002
s(g35
g67
tp1003
(I79
I904
tp1004
s(g158
g80
tp1005
(I400
I400
tp1006
s(g111
g151
tp1007
(I350
I600
tp1008
s(g73
g21
tp1009
(I1000
I0
tp1010
s(g60
g70
tp1011
(I400
I400
tp1012
s(g260
g54
tp1013
(I400
I400
tp1014
s(g229
g9
tp1015
(I400
I400
tp1016
s(g83
g167
tp1017
(I400
I400
tp1018
s(g13
g80
tp1019
(I924
I74
tp1020
s(g140
g14
tp1021
(I1000
I0
tp1022
s(g10
g100
tp1023
(I22
I977
tp1024
s(g103
g95
tp1025
(I1000
I0
tp1026
s(g130
g151
tp1027
(I994
I4
tp1028
s(g51
g127
tp1029
(I400
I400
tp1030
s(g60
g21
tp1031
(I1000
I0
tp1032
s(g140
g133
tp1033
(I400
I400
tp1034
s(g70
g32
tp1035
(I1000
I0
tp1036
s(g111
g67
tp1037
(I204
I699
tp1038
s(g130
g108
tp1039
(I1000
I0
tp1040
s(g21
g14
tp1041
(I400
I400
tp1042
s(g73
g94
tp1043
(I965
I25
tp1044
s(g180
g167
tp1045
(I400
I400
tp1046
s(g28
g54
tp1047
(I400
I400
tp1048
s(g13
g180
tp1049
(I405
I405
tp1050
s(g54
g48
tp1051
(I400
I400
tp1052
s(g20
g24
tp1053
(I756
I186
tp1054
s(g66
g180
tp1055
(I400
I400
tp1056
s(g57
g57
tp1057
(I400
I400
tp1058
s(g148
g24
tp1059
(I400
I400
tp1060
s(g39
g100
tp1061
(I451
I451
tp1062
s(g48
g116
tp1063
(I1000
I0
tp1064
s(g229
g57
tp1065
(I400
I400
tp1066
s(g77
g100
tp1067
(I686
I216
tp1068
s(g39
g127
tp1069
(I400
I400
tp1070
s(g158
g103
tp1071
(I226
I871
tp1072
s(g130
g143
tp1073
(I400
I400
tp1074
s(g80
g32
tp1075
(I1000
I0
tp1076
s(g111
g140
tp1077
(I200
I700
tp1078
s(g143
g9
tp1079
(I400
I400
tp1080
s(g24
g17
tp1081
(I97
I922
tp1082
s(g31
g35
tp1083
(I400
I400
tp1084
s(g130
g14
tp1085
(I1000
I0
tp1086
s(g130
g140
tp1087
(I400
I400
tp1088
s(g140
g51
tp1089
(I400
I400
tp1090
s(g20
g127
tp1091
(I961
I41
tp1092
s(g31
g74
tp1093
(I400
I400
tp1094
s(g229
g54
tp1095
(I400
I400
tp1096
s(g70
g9
tp1097
(I400
I400
tp1098
s(g36
g74
tp1099
(I400
I400
tp1100
s(g167
g14
tp1101
(I1000
I0
tp1102
s(g60
g100
tp1103
(I997
I2
tp1104
s(g94
g116
tp1105
(I1000
I0
tp1106
s(g229
g80
tp1107
(I400
I400
tp1108
s(g31
g36
tp1109
(I400
I400
tp1110
s(g80
g74
tp1111
(I400
I400
tp1112
s(g24
g103
tp1113
(I152
I912
tp1114
s(g143
g100
tp1115
(I997
I2
tp1116
s(g70
g54
tp1117
(I400
I400
tp1118
s(g180
g151
tp1119
(I409
I409
tp1120
s(g32
g116
tp1121
(I0
I1000
tp1122
s(g31
g260
tp1123
(I400
I400
tp1124
s(g108
g21
tp1125
(I1000
I0
tp1126
s(g229
g39
tp1127
(I400
I400
tp1128
s(g17
g10
tp1129
(I400
I735
tp1130
s(g260
g100
tp1131
(I240
I665
tp1132
s(g31
g100
tp1133
(I16
I986
tp1134
s(g60
g116
tp1135
(I1000
I0
tp1136
s(g143
g31
tp1137
(I400
I400
tp1138
s(g260
g36
tp1139
(I400
I400
tp1140
s(g63
g74
tp1141
(I400
I400
tp1142
s(g24
g94
tp1143
(I189
I769
tp1144
s(g143
g67
tp1145
(I997
I2
tp1146
s(g54
g94
tp1147
(I190
I760
tp1148
s(g9
g36
tp1149
(I400
I400
tp1150
s(g148
g167
tp1151
(I400
I400
tp1152
s(g10
g32
tp1153
(I1000
I0
tp1154
s(g39
g27
tp1155
(I400
I400
tp1156
s(g60
g17
tp1157
(I991
I11
tp1158
s(g35
g151
tp1159
(I426
I856
tp1160
s(g13
g39
tp1161
(I403
I403
tp1162
s(g111
g83
tp1163
(I550
I550
tp1164
s(g44
g47
tp1165
(I400
I400
tp1166
s(g28
g67
tp1167
(I626
I256
tp1168
s(g260
g127
tp1169
(I400
I400
tp1170
s(g133
g167
tp1171
(I400
I400
tp1172
s(g31
g94
tp1173
(I20
I980
tp1174
s(g100
g57
tp1175
(I500
I500
tp1176
s(g47
g24
tp1177
(I400
I400
tp1178
s(g167
g10
tp1179
(I400
I400
tp1180
s(g9
g158
tp1181
(I400
I400
tp1182
s(g108
g20
tp1183
(I0
I1000
tp1184
s(g127
g10
tp1185
(I400
I400
tp1186
s(g66
g80
tp1187
(I400
I400
tp1188
s(g27
g63
tp1189
(I400
I400
tp1190
s(g83
g36
tp1191
(I400
I400
tp1192
s(g229
g67
tp1193
(I271
I616
tp1194
s(g47
g10
tp1195
(I400
I400
tp1196
s(g48
g32
tp1197
(I1000
I0
tp1198
s(g35
g47
tp1199
(I400
I400
tp1200
s(g73
g100
tp1201
(I695
I205
tp1202
s(g70
g10
tp1203
(I400
I400
tp1204
s(g108
g32
tp1205
(I999
I4
tp1206
s(g148
g48
tp1207
(I400
I400
tp1208
s(g229
g229
tp1209
(I400
I400
tp1210
s(g28
g127
tp1211
(I400
I400
tp1212
s(g148
g14
tp1213
(I1000
I0
tp1214
s(g60
g9
tp1215
(I400
I400
tp1216
s(g54
g24
tp1217
(I400
I400
tp1218
s(g39
g180
tp1219
(I400
I400
tp1220
s(g54
g36
tp1221
(I400
I400
tp1222
s(g111
g116
tp1223
(I1000
I0
tp1224
s(g143
g32
tp1225
(I1000
I0
tp1226
s(g31
g103
tp1227
(I22
I987
tp1228
s(g24
g74
tp1229
(I400
I400
tp1230
s(g108
g57
tp1231
(I800
I800
tp1232
s(g77
g36
tp1233
(I400
I400
tp1234
s(g31
g73
tp1235
(I403
I398
tp1236
s(g44
g80
tp1237
(I400
I400
tp1238
s(g54
g116
tp1239
(I1000
I0
tp1240
s(g180
g103
tp1241
(I580
I580
tp1242
s(g24
g48
tp1243
(I400
I400
tp1244
s(g47
g73
tp1245
(I403
I398
tp1246
s(g9
g32
tp1247
(I1000
I0
tp1248
s(g20
g95
tp1249
(I1000
I0
tp1250
s(g70
g73
tp1251
(I5
I995
tp1252
s(g13
g70
tp1253
(I982
I17
tp1254
s(g28
g80
tp1255
(I408
I498
tp1256
s(g60
g103
tp1257
(I989
I19
tp1258
s(g108
g77
tp1259
(I796
I801
tp1260
s(g167
g63
tp1261
(I400
I400
tp1262
s(g143
g13
tp1263
(I988
I8
tp1264
s(g80
g57
tp1265
(I400
I400
tp1266
s(g83
g94
tp1267
(I485
I400
tp1268
s(g83
g133
tp1269
(I400
I400
tp1270
s(g151
g63
tp1271
(I663
I338
tp1272
s(g10
g80
tp1273
(I295
I800
tp1274
s(g67
g21
tp1275
(I1000
I0
tp1276
s(g148
g28
tp1277
(I400
I400
tp1278
s(g31
g10
tp1279
(I400
I400
tp1280
s(g130
g21
tp1281
(I1000
I0
tp1282
s(g127
g63
tp1283
(I400
I400
tp1284
s(g260
g21
tp1285
(I1000
I0
tp1286
s(g77
g47
tp1287
(I400
I400
tp1288
s(g28
g116
tp1289
(I1000
I0
tp1290
s(g140
g21
tp1291
(I1000
I0
tp1292
s(g13
g44
tp1293
(I430
I385
tp1294
s(g83
g74
tp1295
(I400
I400
tp1296
s(g111
g14
tp1297
(I1000
I0
tp1298
s(g51
g260
tp1299
(I400
I400
tp1300
s(g130
g36
tp1301
(I400
I400
tp1302
s(g167
g21
tp1303
(I1000
I0
tp1304
s(g13
g63
tp1305
(I406
I401
tp1306
s(g108
g39
tp1307
(I796
I801
tp1308
s(g39
g9
tp1309
(I400
I400
tp1310
s(g24
g80
tp1311
(I400
I400
tp1312
s(g130
g260
tp1313
(I400
I400
tp1314
s(g148
g180
tp1315
(I400
I400
tp1316
s(g77
g28
tp1317
(I400
I400
tp1318
s(g31
g127
tp1319
(I400
I400
tp1320
s(g20
g63
tp1321
(I566
I401
tp1322
s(g51
g48
tp1323
(I400
I400
tp1324
s(g63
g57
tp1325
(I400
I400
tp1326
s(g9
g80
tp1327
(I400
I400
tp1328
s(g31
g70
tp1329
(I400
I400
tp1330
s(g54
g73
tp1331
(I363
I458
tp1332
s(g28
g151
tp1333
(I408
I403
tp1334
s(g140
g74
tp1335
(I400
I400
tp1336
s(g51
g158
tp1337
(I400
I400
tp1338
s(g108
g10
tp1339
(I400
I900
tp1340
s(g108
g13
tp1341
(I0
I1000
tp1342
s(g127
g14
tp1343
(I1000
I0
tp1344
s(g130
g70
tp1345
(I400
I400
tp1346
s(g143
g133
tp1347
(I400
I400
tp1348
s(g143
g60
tp1349
(I400
I400
tp1350
s(g70
g260
tp1351
(I400
I400
tp1352
s(g54
g151
tp1353
(I406
I596
tp1354
s(g143
g151
tp1355
(I994
I4
tp1356
s(g77
g74
tp1357
(I400
I400
tp1358
s(g74
g32
tp1359
(I999
I4
tp1360
s(g13
g127
tp1361
(I967
I32
tp1362
s(g60
g60
tp1363
(I400
I400
tp1364
s(g148
g103
tp1365
(I636
I631
tp1366
s(g70
g36
tp1367
(I400
I400
tp1368
s(g28
g10
tp1369
(I400
I400
tp1370
s(g54
g100
tp1371
(I217
I692
tp1372
s(g27
g95
tp1373
(I1000
I0
tp1374
s(g17
g74
tp1375
(I600
I600
tp1376
s(g27
g24
tp1377
(I400
I400
tp1378
s(g94
g10
tp1379
(I400
I485
tp1380
s(g260
g24
tp1381
(I400
I400
tp1382
s(g14
g14
tp1383
(I1000
I0
tp1384
s(g44
g21
tp1385
(I1000
I0
tp1386
s(g67
g10
tp1387
(I971
I26
tp1388
s(g111
g60
tp1389
(I200
I700
tp1390
s(g158
g158
tp1391
(I400
I400
tp1392
s(g57
g74
tp1393
(I0
I1000
tp1394
s(g229
g21
tp1395
(I1000
I0
tp1396
s(g111
g28
tp1397
(I200
I700
tp1398
s(g67
g57
tp1399
(I480
I480
tp1400
s(g51
g36
tp1401
(I400
I400
tp1402
s(g83
g21
tp1403
(I1000
I0
tp1404
s(g60
g80
tp1405
(I445
I370
tp1406
s(g27
g9
tp1407
(I400
I400
tp1408
s(g66
g48
tp1409
(I400
I400
tp1410
s(g130
g13
tp1411
(I988
I8
tp1412
s(g67
g32
tp1413
(I1000
I0
tp1414
s(g31
g28
tp1415
(I400
I400
tp1416
s(g31
g180
tp1417
(I400
I400
tp1418
s(g27
g14
tp1419
(I1000
I0
tp1420
s(g27
g17
tp1421
(I553
I518
tp1422
s(g31
g51
tp1423
(I400
I400
tp1424
s(g77
g140
tp1425
(I400
I400
tp1426
s(g17
g21
tp1427
(I1000
I0
tp1428
s(g47
g47
tp1429
(I400
I400
tp1430
s(g83
g140
tp1431
(I400
I400
tp1432
s(g130
g100
tp1433
(I997
I2
tp1434
s(g60
g35
tp1435
(I400
I400
tp1436
s(g39
g94
tp1437
(I450
I445
tp1438
s(g39
g77
tp1439
(I400
I400
tp1440
s(g167
g95
tp1441
(I1000
I0
tp1442
s(g66
g73
tp1443
(I385
I425
tp1444
s(g67
g24
tp1445
(I634
I254
tp1446
s(g148
g44
tp1447
(I400
I400
tp1448
s(g70
g57
tp1449
(I400
I400
tp1450
s(g143
g24
tp1451
(I400
I400
tp1452
s(g44
g48
tp1453
(I400
I400
tp1454
s(g167
g158
tp1455
(I400
I400
tp1456
s(g67
g14
tp1457
(I1000
I0
tp1458
s(g66
g66
tp1459
(I400
I400
tp1460
s(g108
g74
tp1461
(I800
I800
tp1462
s(g60
g36
tp1463
(I400
I400
tp1464
s(g83
g83
tp1465
(I400
I400
tp1466
s(g36
g24
tp1467
(I400
I400
tp1468
s(g28
g9
tp1469
(I400
I400
tp1470
s(g27
g151
tp1471
(I408
I403
tp1472
s(g148
g158
tp1473
(I400
I400
tp1474
s(g57
g116
tp1475
(I1000
I0
tp1476
s(g60
g74
tp1477
(I400
I400
tp1478
s(g130
g51
tp1479
(I400
I400
tp1480
s(g77
g67
tp1481
(I626
I256
tp1482
s(g44
g10
tp1483
(I400
I400
tp1484
s(g35
g10
tp1485
(I400
I400
tp1486
s(g180
g17
tp1487
(I530
I520
tp1488
s(g229
g116
tp1489
(I1000
I0
tp1490
s(g39
g260
tp1491
(I400
I400
tp1492
s(g28
g17
tp1493
(I541
I526
tp1494
s(g180
g36
tp1495
(I400
I400
tp1496
s(g148
g70
tp1497
(I400
I400
tp1498
s(g35
g21
tp1499
(I1000
I0
tp1500
s(g73
g67
tp1501
(I635
I245
tp1502
s(g35
g127
tp1503
(I400
I400
tp1504
s(g44
g167
tp1505
(I400
I400
tp1506
s(g39
g36
tp1507
(I400
I400
tp1508
s(g180
g20
tp1509
(I529
I429
tp1510
s(g158
g57
tp1511
(I400
I400
tp1512
s(g47
g95
tp1513
(I1000
I0
tp1514
s(g77
g103
tp1515
(I480
I680
tp1516
s(g67
g133
tp1517
(I961
I41
tp1518
s(g140
g116
tp1519
(I1000
I0
tp1520
s(g51
g32
tp1521
(I1000
I0
tp1522
s(g133
g32
tp1523
(I1000
I0
tp1524
s(g44
g73
tp1525
(I383
I428
tp1526
s(g70
g151
tp1527
(I405
I890
tp1528
s(g60
g44
tp1529
(I400
I400
tp1530
s(g111
g77
tp1531
(I200
I700
tp1532
s(g73
g95
tp1533
(I1000
I0
tp1534
s(g24
g32
tp1535
(I1000
I0
tp1536
s(g158
g48
tp1537
(I400
I400
tp1538
s(g83
g27
tp1539
(I400
I400
tp1540
s(g73
g167
tp1541
(I428
I383
tp1542
s(g108
g100
tp1543
(I0
I1000
tp1544
s(g130
g54
tp1545
(I400
I400
tp1546
s(g13
g47
tp1547
(I428
I388
tp1548
s(g77
g94
tp1549
(I662
I282
tp1550
s(g83
g95
tp1551
(I1000
I0
tp1552
s(g51
g74
tp1553
(I400
I400
tp1554
s(g60
g20
tp1555
(I997
I2
tp1556
s(g31
g44
tp1557
(I400
I400
tp1558
s(g9
g9
tp1559
(I400
I400
tp1560
s(g67
g48
tp1561
(I251
I631
tp1562
s(g127
g94
tp1563
(I35
I965
tp1564
s(g51
g95
tp1565
(I1000
I0
tp1566
s(g77
g80
tp1567
(I791
I761
tp1568
s(g130
g83
tp1569
(I400
I400
tp1570
s(g66
g94
tp1571
(I219
I739
tp1572
s(g13
g48
tp1573
(I401
I406
tp1574
s(g47
g133
tp1575
(I400
I400
tp1576
s(g111
g24
tp1577
(I877
I407
tp1578
s(g27
g54
tp1579
(I400
I400
tp1580
s(g74
g14
tp1581
(I1000
I0
tp1582
s(g66
g20
tp1583
(I227
I727
tp1584
s(g70
g17
tp1585
(I9
I994
tp1586
s(g127
g100
tp1587
(I41
I961
tp1588
s(g66
g133
tp1589
(I400
I400
tp1590
s(g77
g21
tp1591
(I1000
I0
tp1592
s(g108
g158
tp1593
(I796
I801
tp1594
s(g83
g47
tp1595
(I400
I400
tp1596
s(g63
g100
tp1597
(I369
I534
tp1598
s(g35
g103
tp1599
(I1000
I0
tp1600
s(g39
g28
tp1601
(I400
I400
tp1602
s(g70
g48
tp1603
(I400
I400
tp1604
s(g80
g95
tp1605
(I1000
I0
tp1606
s(g130
g24
tp1607
(I400
I400
tp1608
s(g27
g70
tp1609
(I400
I400
tp1610
s(g48
g100
tp1611
(I691
I211
tp1612
s(g108
g27
tp1613
(I796
I801
tp1614
s(g31
g39
tp1615
(I400
I400
tp1616
s(g180
g73
tp1617
(I401
I401
tp1618
s(g148
g116
tp1619
(I1000
I0
tp1620
s(g74
g74
tp1621
(I800
I800
tp1622
s(g36
g158
tp1623
(I400
I400
tp1624
s(g133
g10
tp1625
(I400
I400
tp1626
s(g67
g63
tp1627
(I506
I376
tp1628
s(g54
g158
tp1629
(I400
I400
tp1630
s(g130
g116
tp1631
(I1000
I0
tp1632
s(g31
g80
tp1633
(I400
I400
tp1634
s(g39
g47
tp1635
(I400
I400
tp1636
s(g9
g35
tp1637
(I400
I400
tp1638
s(g143
g51
tp1639
(I400
I400
tp1640
s(g36
g36
tp1641
(I400
I400
tp1642
s(g140
g10
tp1643
(I400
I400
tp1644
s(g140
g63
tp1645
(I400
I400
tp1646
s(g28
g44
tp1647
(I400
I400
tp1648
s(g48
g57
tp1649
(I400
I400
tp1650
s(g20
g133
tp1651
(I961
I41
tp1652
s(g10
g95
tp1653
(I1000
I0
tp1654
s(g57
g21
tp1655
(I1000
I0
tp1656
s(g47
g167
tp1657
(I400
I400
tp1658
s(g260
g17
tp1659
(I141
I886
tp1660
s(g158
g14
tp1661
(I1000
I0
tp1662
s(g83
g54
tp1663
(I400
I400
tp1664
s(g70
g167
tp1665
(I400
I400
tp1666
s(g140
g44
tp1667
(I400
I400
tp1668
s(g13
g21
tp1669
(I1000
I0
tp1670
s(g180
g10
tp1671
(I400
I400
tp1672
s(g39
g140
tp1673
(I400
I400
tp1674
s(g70
g35
tp1675
(I400
I400
tp1676
s(g127
g116
tp1677
(I1000
I0
tp1678
s(g70
g116
tp1679
(I1000
I0
tp1680
s(g140
g32
tp1681
(I1000
I0
tp1682
s(g17
g14
tp1683
(I1000
I0
tp1684
s(g28
g95
tp1685
(I1000
I0
tp1686
s(g127
g151
tp1687
(I418
I868
tp1688
s(g44
g151
tp1689
(I391
I856
tp1690
s(g229
g63
tp1691
(I400
I400
tp1692
s(g27
g57
tp1693
(I400
I400
tp1694
s(g167
g32
tp1695
(I1000
I0
tp1696
s(g39
g151
tp1697
(I403
I403
tp1698
s(g20
g14
tp1699
(I1000
I0
tp1700
s(g39
g167
tp1701
(I400
I400
tp1702
s(g148
g17
tp1703
(I550
I550
tp1704
s(g260
g80
tp1705
(I400
I400
tp1706
s(g28
g74
tp1707
(I400
I400
tp1708
s(g66
g74
tp1709
(I400
I400
tp1710
s(g77
g32
tp1711
(I1000
I0
tp1712
s(g60
g140
tp1713
(I400
I400
tp1714
s(g83
g151
tp1715
(I405
I400
tp1716
s(g54
g14
tp1717
(I1000
I0
tp1718
s(g130
g47
tp1719
(I400
I400
tp1720
s(g130
g9
tp1721
(I400
I400
tp1722
s(g51
g51
tp1723
(I400
I400
tp1724
s(g148
g9
tp1725
(I400
I400
tp1726
s(g143
g140
tp1727
(I400
I400
tp1728
s(g48
g95
tp1729
(I1000
I0
tp1730
s(g27
g133
tp1731
(I400
I400
tp1732
s(g158
g116
tp1733
(I1000
I0
tp1734
s(g151
g103
tp1735
(I900
I400
tp1736
s(g35
g158
tp1737
(I400
I400
tp1738
s(g77
g77
tp1739
(I400
I400
tp1740
s(g158
g100
tp1741
(I240
I665
tp1742
s(g36
g103
tp1743
(I374
I784
tp1744
s(g77
g17
tp1745
(I537
I532
tp1746
s(g31
g63
tp1747
(I400
I400
tp1748
s(g77
g54
tp1749
(I400
I400
tp1750
s(g44
g17
tp1751
(I174
I859
tp1752
s(g13
g158
tp1753
(I439
I379
tp1754
s(g127
g167
tp1755
(I400
I400
tp1756
s(g180
g54
tp1757
(I400
I400
tp1758
s(g54
g74
tp1759
(I400
I400
tp1760
s(g9
g24
tp1761
(I400
I400
tp1762
s(g167
g24
tp1763
(I400
I400
tp1764
s(g51
g133
tp1765
(I400
I400
tp1766
s(g54
g127
tp1767
(I400
I400
tp1768
s(g94
g103
tp1769
(I1000
I0
tp1770
s(g17
g17
tp1771
(I600
I600
tp1772
s(g130
g31
tp1773
(I400
I400
tp1774
s(g13
g67
tp1775
(I997
I2
tp1776
s(g111
g31
tp1777
(I886
I406
tp1778
s(g151
g48
tp1779
(I401
I406
tp1780
s(g111
g111
tp1781
(I600
I600
tp1782
s(g9
g63
tp1783
(I400
I400
tp1784
s(g148
g67
tp1785
(I441
I441
tp1786
s(g60
g31
tp1787
(I400
I400
tp1788
s(g28
g167
tp1789
(I400
I400
tp1790
s(g108
g95
tp1791
(I1000
I0
tp1792
s(g28
g100
tp1793
(I686
I216
tp1794
s(g9
g14
tp1795
(I1000
I0
tp1796
s(g20
g20
tp1797
(I534
I534
tp1798
s(g83
g51
tp1799
(I400
I400
tp1800
s(g140
g127
tp1801
(I400
I400
tp1802
s(g28
g133
tp1803
(I400
I400
tp1804
s(g21
g116
tp1805
(I400
I400
tp1806
s(g35
g35
tp1807
(I400
I400
tp1808
s(g140
g100
tp1809
(I686
I216
tp1810
s(g67
g103
tp1811
(I1000
I0
tp1812
s(g13
g20
tp1813
(I997
I2
tp1814
s(g108
g48
tp1815
(I792
I802
tp1816
s(g21
g95
tp1817
(I400
I400
tp1818
s(g80
g21
tp1819
(I1000
I0
tp1820
s(g94
g21
tp1821
(I1000
I0
tp1822
s(g229
g260
tp1823
(I400
I400
tp1824
s(g133
g21
tp1825
(I1000
I0
tp1826
s(g51
g35
tp1827
(I400
I400
tp1828
s(g260
g74
tp1829
(I400
I400
tp1830
s(g24
g57
tp1831
(I400
I400
tp1832
s(g158
g63
tp1833
(I400
I400
tp1834
s(g260
g103
tp1835
(I277
I852
tp1836
s(g20
g57
tp1837
(I534
I534
tp1838
s(g9
g116
tp1839
(I1000
I0
tp1840
s(g17
g116
tp1841
(I1000
I0
tp1842
s(g13
g32
tp1843
(I1000
I0
tp1844
s(g28
g24
tp1845
(I400
I400
tp1846
s(g63
g63
tp1847
(I400
I400
tp1848
s(g60
g32
tp1849
(I1000
I0
tp1850
s(g158
g21
tp1851
(I1000
I0
tp1852
s(g260
g57
tp1853
(I400
I400
tp1854
s(g77
g27
tp1855
(I400
I400
tp1856
s(g51
g54
tp1857
(I400
I400
tp1858
s(g63
g116
tp1859
(I1000
I0
tp1860
s(g73
g57
tp1861
(I800
I800
tp1862
s(g77
g48
tp1863
(I400
I400
tp1864
s(g260
g67
tp1865
(I270
I615
tp1866
s(g111
g27
tp1867
(I200
I700
tp1868
s(g70
g80
tp1869
(I715
I715
tp1870
s(g47
g57
tp1871
(I400
I400
tp1872
s(g260
g35
tp1873
(I400
I400
tp1874
s(g73
g151
tp1875
(I398
I403
tp1876
s(g229
g77
tp1877
(I400
I400
tp1878
s(g108
g66
tp1879
(I796
I801
tp1880
s(g158
g95
tp1881
(I1000
I0
tp1882
s(g140
g47
tp1883
(I400
I400
tp1884
s(g108
g63
tp1885
(I796
I801
tp1886
s(g111
g73
tp1887
(I203
I698
tp1888
s(g143
g54
tp1889
(I400
I400
tp1890
s(g28
g180
tp1891
(I400
I400
tp1892
s(g9
g133
tp1893
(I400
I400
tp1894
s(g66
g10
tp1895
(I400
I400
tp1896
s(g31
g67
tp1897
(I16
I986
tp1898
s(g143
g77
tp1899
(I400
I400
tp1900
s(g127
g21
tp1901
(I1000
I0
tp1902
s(g148
g77
tp1903
(I400
I400
tp1904
s(g140
g180
tp1905
(I400
I400
tp1906
s(g143
g229
tp1907
(I400
I400
tp1908
s(g35
g57
tp1909
(I400
I400
tp1910
s(g51
g103
tp1911
(I476
I556
tp1912
s(g63
g21
tp1913
(I1000
I0
tp1914
s(g108
g35
tp1915
(I0
I1000
tp1916
s(g111
g167
tp1917
(I857
I412
tp1918
s(g108
g94
tp1919
(I0
I1000
tp1920
s(g83
g67
tp1921
(I26
I971
tp1922
s(g51
g116
tp1923
(I1000
I0
tp1924
s(g60
g229
tp1925
(I400
I400
tp1926
s(g67
g67
tp1927
(I480
I480
tp1928
s(g60
g67
tp1929
(I997
I2
tp1930
s(g66
g9
tp1931
(I400
I400
tp1932
s(g229
g17
tp1933
(I174
I859
tp1934
s(g20
g9
tp1935
(I755
I185
tp1936
s(g60
g57
tp1937
(I400
I400
tp1938
s(g24
g21
tp1939
(I1000
I0
tp1940
s(g130
g63
tp1941
(I400
I400
tp1942
s(g111
g10
tp1943
(I550
I550
tp1944
s(g103
g63
tp1945
(I684
I549
tp1946
s(g111
g17
tp1947
(I603
I598
tp1948
s(g36
g63
tp1949
(I400
I400
tp1950
s(g20
g35
tp1951
(I922
I72
tp1952
s(g54
g47
tp1953
(I400
I400
tp1954
s(g180
g57
tp1955
(I400
I400
tp1956
s(g148
g47
tp1957
(I400
I400
tp1958
s(g13
g133
tp1959
(I967
I32
tp1960
s(g143
g260
tp1961
(I400
I400
tp1962
s(g36
g167
tp1963
(I400
I400
tp1964
s(g148
g260
tp1965
(I400
I400
tp1966
s(g54
g103
tp1967
(I229
I884
tp1968
s(g28
g73
tp1969
(I401
I401
tp1970
s(g10
g74
tp1971
(I400
I400
tp1972
s(g39
g70
tp1973
(I400
I400
tp1974
s(g66
g28
tp1975
(I400
I400
tp1976
s(g140
g27
tp1977
(I400
I400
tp1978
s(g94
g74
tp1979
(I436
I436
tp1980
s(g260
g158
tp1981
(I400
I400
tp1982
s(g31
g21
tp1983
(I1000
I0
tp1984
s(g27
g180
tp1985
(I400
I400
tp1986
s(g36
g116
tp1987
(I1000
I0
tp1988
s(g77
g180
tp1989
(I400
I400
tp1990
s(g108
g17
tp1991
(I4
I999
tp1992
s(g36
g32
tp1993
(I1000
I0
tp1994
s(g51
g24
tp1995
(I400
I400
tp1996
s(g130
g60
tp1997
(I400
I400
tp1998
s(g83
g32
tp1999
(I1000
I0
tp2000
s(g80
g116
tp2001
(I1000
I0
tp2002
s(g130
g28
tp2003
(I400
I400
tp2004
s(g180
g51
tp2005
(I400
I400
tp2006
s(g35
g73
tp2007
(I19
I974
tp2008
s(g27
g116
tp2009
(I1000
I0
tp2010
s(g44
g260
tp2011
(I400
I400
tp2012
s(g108
g44
tp2013
(I760
I810
tp2014
s(g48
g74
tp2015
(I400
I400
tp2016
s(g73
g63
tp2017
(I404
I399
tp2018
s(g39
g35
tp2019
(I400
I400
tp2020
s(g66
g77
tp2021
(I400
I400
tp2022
s(g229
g100
tp2023
(I245
I660
tp2024
s(g260
g63
tp2025
(I400
I400
tp2026
s(g103
g14
tp2027
(I1000
I0
tp2028
s(g24
g95
tp2029
(I1000
I0
tp2030
s(g60
g54
tp2031
(I400
I400
tp2032
s(g17
g48
tp2033
(I440
I640
tp2034
s(g83
g39
tp2035
(I400
I400
tp2036
s(g67
g17
tp2037
(I1000
I0
tp2038
s(g13
g51
tp2039
(I441
I401
tp2040
s(g20
g48
tp2041
(I305
I630
tp2042
s(g111
g229
tp2043
(I829
I419
tp2044
s(g143
g80
tp2045
(I403
I398
tp2046
s(g140
g158
tp2047
(I400
I400
tp2048
s(g28
g57
tp2049
(I400
I400
tp2050
s(g67
g80
tp2051
(I993
I8
tp2052
s(g51
g57
tp2053
(I400
I400
tp2054
s(g51
g9
tp2055
(I400
I400
tp2056
s(g51
g167
tp2057
(I400
I400
tp2058
s(g60
g39
tp2059
(I400
I400
tp2060
s(g66
g36
tp2061
(I400
I400
tp2062
s(g35
g94
tp2063
(I108
I883
tp2064
s(g66
g127
tp2065
(I400
I400
tp2066
s(g27
g32
tp2067
(I1000
I0
tp2068
s(g130
g229
tp2069
(I400
I400
tp2070
s(g39
g20
tp2071
(I468
I468
tp2072
s(g66
g32
tp2073
(I1000
I0
tp2074
s(g36
g80
tp2075
(I400
I400
tp2076
s(g143
g14
tp2077
(I1000
I0
tp2078
s(g70
g44
tp2079
(I400
I400
tp2080
s(g260
g151
tp2081
(I413
I843
tp2082
s(g130
g103
tp2083
(I1000
I0
tp2084
s(g151
g32
tp2085
(I1000
I0
tp2086
s(g111
g260
tp2087
(I845
I415
tp2088
s(g80
g80
tp2089
(I400
I400
tp2090
s(g67
g158
tp2091
(I615
I270
tp2092
s(g167
g94
tp2093
(I265
I670
tp2094
s(g143
g63
tp2095
(I400
I400
tp2096
s(g9
g48
tp2097
(I400
I400
tp2098
s(g31
g47
tp2099
(I400
I400
tp2100
s(g54
g35
tp2101
(I400
I400
tp2102
s(g111
g36
tp2103
(I829
I419
tp2104
s(g127
g17
tp2105
(I35
I970
tp2106
s(g148
g10
tp2107
(I400
I400
tp2108
s(g74
g95
tp2109
(I1000
I0
tp2110
s(g13
g9
tp2111
(I448
I373
tp2112
s(g148
g57
tp2113
(I400
I400
tp2114
s(g51
g67
tp2115
(I521
I361
tp2116
s(g143
g21
tp2117
(I1000
I0
tp2118
s(g17
g103
tp2119
(I999
I4
tp2120
s(g229
g28
tp2121
(I400
I400
tp2122
s(g20
g54
tp2123
(I756
I186
tp2124
s(g133
g158
tp2125
(I400
I400
tp2126
s(g229
g70
tp2127
(I400
I400
tp2128
s(g60
g24
tp2129
(I400
I400
tp2130
s(g260
g260
tp2131
(I400
I400
tp2132
s(g130
g180
tp2133
(I400
I400
tp2134
s(g229
g51
tp2135
(I400
I400
tp2136
s(g47
g151
tp2137
(I407
I422
tp2138
s(g133
g151
tp2139
(I418
I868
tp2140
s(g143
g158
tp2141
(I400
I400
tp2142
s(g229
g20
tp2143
(I199
I739
tp2144
s(g51
g100
tp2145
(I581
I321
tp2146
s(g13
g100
tp2147
(I997
I2
tp2148
s(g28
g35
tp2149
(I400
I400
tp2150
s(g127
g48
tp2151
(I400
I400
tp2152
s(g66
g35
tp2153
(I400
I400
tp2154
s(g140
g80
tp2155
(I416
I431
tp2156
s(g60
g158
tp2157
(I400
I400
tp2158
s(g39
g17
tp2159
(I550
I550
tp2160
s(g73
g133
tp2161
(I974
I19
tp2162
s(g35
g100
tp2163
(I74
I914
tp2164
s(g151
g10
tp2165
(I400
I405
tp2166
s(g108
g148
tp2167
(I796
I801
tp2168
s(g127
g74
tp2169
(I400
I400
tp2170
s(g151
g17
tp2171
(I553
I548
tp2172
s(g108
g133
tp2173
(I0
I1000
tp2174
s(g94
g100
tp2175
(I997
I2
tp2176
s(g111
g94
tp2177
(I200
I700
tp2178
s(g13
g74
tp2179
(I402
I402
tp2180
s(g77
g63
tp2181
(I400
I400
tp2182
s(g77
g116
tp2183
(I1000
I0
tp2184
s(g140
g94
tp2185
(I502
I432
tp2186
s(g10
g57
tp2187
(I400
I400
tp2188
s(g51
g10
tp2189
(I400
I400
tp2190
s(g60
g28
tp2191
(I400
I400
tp2192
s(g60
g133
tp2193
(I400
I400
tp2194
s(g17
g95
tp2195
(I1000
I0
tp2196
s(g67
g116
tp2197
(I1000
I0
tp2198
s(g54
g67
tp2199
(I254
I634
tp2200
s(g83
g66
tp2201
(I400
I400
tp2202
s(g148
g143
tp2203
(I400
I400
tp2204
s(g143
g47
tp2205
(I400
I400
tp2206
s(g10
g116
tp2207
(I1000
I0
tp2208
s(g143
g143
tp2209
(I400
I400
tp2210
s(g133
g14
tp2211
(I1000
I0
tp2212
s(g66
g70
tp2213
(I400
I400
tp2214
s(g143
g20
tp2215
(I997
I2
tp2216
s(g66
g116
tp2217
(I1000
I0
tp2218
s(g83
g73
tp2219
(I5
I995
tp2220
s(g66
g95
tp2221
(I1000
I0
tp2222
s(g94
g14
tp2223
(I1000
I0
tp2224
s(g54
g17
tp2225
(I136
I896
tp2226
s(g31
g66
tp2227
(I400
I400
tp2228
s(g35
g32
tp2229
(I1000
I0
tp2230
s(g77
g44
tp2231
(I400
I400
tp2232
s(g67
g74
tp2233
(I480
I480
tp2234
s(g140
g20
tp2235
(I578
I373
tp2236
s(g143
g83
tp2237
(I400
I400
tp2238
s(g180
g95
tp2239
(I1000
I0
tp2240
s(g66
g57
tp2241
(I400
I400
tp2242
s(g260
g73
tp2243
(I377
I437
tp2244
s(g111
g80
tp2245
(I200
I700
tp2246
s(g108
g67
tp2247
(I0
I1000
tp2248
s(g229
g133
tp2249
(I400
I400
tp2250
s(g229
g74
tp2251
(I400
I400
tp2252
s(g83
g9
tp2253
(I400
I400
tp2254
s(g28
g36
tp2255
(I400
I400
tp2256
s(g111
g143
tp2257
(I886
I406
tp2258
s(g66
g44
tp2259
(I400
I400
tp2260
s(g74
g116
tp2261
(I1000
I0
tp2262
s(g148
g151
tp2263
(I403
I403
tp2264
s(g54
g54
tp2265
(I400
I400
tp2266
s(g77
g95
tp2267
(I1000
I0
tp2268
s(g60
g95
tp2269
(I1000
I0
tp2270
s(g28
g260
tp2271
(I400
I400
tp2272
s(g94
g63
tp2273
(I482
I417
tp2274
s(g66
g51
tp2275
(I400
I400
tp2276
s(g83
g17
tp2277
(I735
I400
tp2278
s(g20
g167
tp2279
(I720
I225
tp2280
s(g111
g48
tp2281
(I200
I700
tp2282
s(g229
g127
tp2283
(I400
I400
tp2284
s(g158
g32
tp2285
(I1000
I0
tp2286
s(g51
g94
tp2287
(I553
I423
tp2288
s(g260
g47
tp2289
(I400
I400
tp2290
s(g158
g74
tp2291
(I400
I400
tp2292
s(g111
g127
tp2293
(I886
I406
tp2294
s(g148
g74
tp2295
(I400
I400
tp2296
s(g31
g48
tp2297
(I400
I400
tp2298
s(g143
g116
tp2299
(I1000
I0
tp2300
s(g51
g63
tp2301
(I400
I400
tp2302
s(g60
g51
tp2303
(I400
I400
tp2304
s(g130
g167
tp2305
(I400
I400
tp2306
s(g130
g130
tp2307
(I400
I400
tp2308
s(g20
g103
tp2309
(I1000
I0
tp2310
s(g148
g54
tp2311
(I400
I400
tp2312
s(g108
g127
tp2313
(I784
I804
tp2314
s(g36
g48
tp2315
(I400
I400
tp2316
s(g24
g63
tp2317
(I400
I400
tp2318
s(g35
g24
tp2319
(I400
I400
tp2320
s(g51
g151
tp2321
(I441
I836
tp2322
s(g158
g10
tp2323
(I400
I400
tp2324
s(g111
g21
tp2325
(I1000
I0
tp2326
s(g48
g94
tp2327
(I487
I412
tp2328
s(g133
g80
tp2329
(I400
I400
tp2330
s(g130
g73
tp2331
(I403
I398
tp2332
s(g27
g36
tp2333
(I400
I400
tp2334
s(g77
g51
tp2335
(I400
I400
tp2336
s(g9
g127
tp2337
(I400
I400
tp2338
s(g127
g57
tp2339
(I400
I400
tp2340
s(g94
g80
tp2341
(I682
I317
tp2342
s(g27
g260
tp2343
(I400
I400
tp2344
s(g70
g127
tp2345
(I400
I400
tp2346
s(g28
g70
tp2347
(I400
I400
tp2348
s(g148
g63
tp2349
(I400
I400
tp2350
s(g167
g167
tp2351
(I400
I400
tp2352
s(g54
g63
tp2353
(I400
I400
tp2354
s(g77
g260
tp2355
(I400
I400
tp2356
s(g83
g100
tp2357
(I22
I977
tp2358
s(g94
g57
tp2359
(I436
I436
tp2360
s(g54
g10
tp2361
(I400
I400
tp2362
s(g148
g35
tp2363
(I400
I400
tp2364
s(g35
g14
tp2365
(I1000
I0
tp2366
s(g133
g100
tp2367
(I41
I961
tp2368
s(g130
g20
tp2369
(I997
I2
tp2370
s(g36
g94
tp2371
(I408
I493
tp2372
s(g13
g10
tp2373
(I400
I405
tp2374
s(g20
g80
tp2375
(I265
I670
tp2376
s(g94
g32
tp2377
(I1000
I0
tp2378
s(g140
g48
tp2379
(I400
I400
tp2380
s(g27
g44
tp2381
(I400
I400
tp2382
s(g31
g229
tp2383
(I400
I400
tp2384
s(g47
g17
tp2385
(I238
I793
tp2386
s(g27
g94
tp2387
(I504
I454
tp2388
s(g39
g80
tp2389
(I400
I400
tp2390
s(g111
g13
tp2391
(I200
I700
tp2392
s(g44
g24
tp2393
(I400
I400
tp2394
s(g66
g17
tp2395
(I108
I913
tp2396
s(g31
g54
tp2397
(I400
I400
tp2398
s(g83
g35
tp2399
(I400
I400
tp2400
s(g140
g17
tp2401
(I566
I496
tp2402
s(g143
g27
tp2403
(I400
I400
tp2404
s(g63
g95
tp2405
(I1000
I0
tp2406
s(g148
g27
tp2407
(I400
I400
tp2408
s(g127
g133
tp2409
(I400
I400
tp2410
s(g9
g167
tp2411
(I400
I400
tp2412
s(g148
g100
tp2413
(I451
I451
tp2414
s(g111
g148
tp2415
(I497
I502
tp2416
s(g143
g103
tp2417
(I1000
I0
tp2418
s(g9
g95
tp2419
(I1000
I0
tp2420
s(g60
g77
tp2421
(I400
I400
tp2422
s(g140
g103
tp2423
(I589
I524
tp2424
s(g83
g63
tp2425
(I400
I400
tp2426
s(g44
g133
tp2427
(I400
I400
tp2428
s(g28
g14
tp2429
(I1000
I0
tp2430
s(g27
g74
tp2431
(I400
I400
tp2432
s(g48
g48
tp2433
(I400
I400
tp2434
s(g31
g20
tp2435
(I16
I986
tp2436
s(g70
g103
tp2437
(I17
I992
tp2438
s(g180
g32
tp2439
(I1000
I0
tp2440
s(g77
g127
tp2441
(I400
I400
tp2442
s(g27
g73
tp2443
(I401
I401
tp2444
s(g127
g127
tp2445
(I400
I400
tp2446
s(g108
g151
tp2447
(I400
I900
tp2448
s(g20
g36
tp2449
(I624
I344
tp2450
s(g47
g80
tp2451
(I400
I400
tp2452
s(g143
g167
tp2453
(I400
I400
tp2454
s(g260
g32
tp2455
(I1000
I0
tp2456
s(g54
g133
tp2457
(I400
I400
tp2458
s(g151
g74
tp2459
(I404
I404
tp2460
s(g83
g70
tp2461
(I400
I400
tp2462
s(g70
g14
tp2463
(I1000
I0
tp2464
s(g108
g108
tp2465
(I800
I800
tp2466
s(g148
g148
tp2467
(I400
I400
tp2468
s(g20
g260
tp2469
(I732
I212
tp2470
s(g70
g51
tp2471
(I400
I400
tp2472
s(g39
g103
tp2473
(I636
I631
tp2474
s(g9
g151
tp2475
(I403
I433
tp2476
s(g60
g260
tp2477
(I400
I400
tp2478
s(g27
g35
tp2479
(I400
I400
tp2480
s(g44
g63
tp2481
(I400
I400
tp2482
s(g83
g158
tp2483
(I400
I400
tp2484
s(g108
g36
tp2485
(I796
I801
tp2486
s(g229
g180
tp2487
(I400
I400
tp2488
s(g44
g127
tp2489
(I400
I400
tp2490
s(g27
g10
tp2491
(I400
I400
tp2492
s(g9
g21
tp2493
(I1000
I0
tp2494
s(g24
g10
tp2495
(I400
I400
tp2496
s(g108
g260
tp2497
(I748
I813
tp2498
s(g108
g143
tp2499
(I0
I1000
tp2500
s(g51
g73
tp2501
(I403
I398
tp2502
s(g39
g67
tp2503
(I441
I441
tp2504
s(g39
g51
tp2505
(I400
I400
tp2506
s(g44
g32
tp2507
(I1000
I0
tp2508
s(g66
g54
tp2509
(I400
I400
tp2510
s(g180
g67
tp2511
(I621
I261
tp2512
s(g39
g44
tp2513
(I400
I400
tp2514
s(g13
g140
tp2515
(I407
I407
tp2516
s(g140
g35
tp2517
(I400
I400
tp2518
s(g66
g39
tp2519
(I400
I400
tp2520
s(g70
g100
tp2521
(I11
I991
tp2522
s(g67
g36
tp2523
(I544
I339
tp2524
s(g27
g100
tp2525
(I686
I216
tp2526
s(g47
g100
tp2527
(I646
I256
tp2528
s(g133
g74
tp2529
(I400
I400
tp2530
s(g260
g133
tp2531
(I400
I400
tp2532
s(g13
g36
tp2533
(I412
I397
tp2534
s(g180
g100
tp2535
(I566
I336
tp2536
s(g60
g27
tp2537
(I400
I400
tp2538
s(g20
g158
tp2539
(I732
I212
tp2540
s(g44
g116
tp2541
(I1000
I0
tp2542
s(g148
g73
tp2543
(I401
I401
tp2544
s(g140
g151
tp2545
(I408
I403
tp2546
s(g31
g57
tp2547
(I400
I400
tp2548
s(g9
g73
tp2549
(I399
I404
tp2550
s(g31
g9
tp2551
(I400
I400
tp2552
s(g151
g151
tp2553
(I404
I404
tp2554
s(g63
g14
tp2555
(I1000
I0
tp2556
s(g148
g21
tp2557
(I1000
I0
tp2558
s(g28
g51
tp2559
(I400
I400
tp2560
s(g28
g63
tp2561
(I400
I400
tp2562
s(g148
g66
tp2563
(I400
I400
tp2564
s(g127
g47
tp2565
(I400
I400
tp2566
s(g229
g32
tp2567
(I1000
I0
tp2568
s(g95
g14
tp2569
(I400
I400
tp2570
s(g66
g140
tp2571
(I400
I400
tp2572
s(g111
g133
tp2573
(I872
I412
tp2574
s(g180
g9
tp2575
(I400
I400
tp2576
s(g44
g44
tp2577
(I400
I400
tp2578
s(g66
g14
tp2579
(I1000
I0
tp2580
s(g20
g10
tp2581
(I968
I33
tp2582
s(g83
g44
tp2583
(I400
I400
tp2584
s(g31
g24
tp2585
(I400
I400
tp2586
s(g44
g57
tp2587
(I400
I400
tp2588
s(g140
g260
tp2589
(I400
I400
tp2590
s(g44
g100
tp2591
(I249
I654
tp2592
s(g39
g158
tp2593
(I400
I400
tp2594
s(g9
g44
tp2595
(I400
I400
tp2596
s(g24
g116
tp2597
(I1000
I0
tp2598
s(g151
g57
tp2599
(I404
I404
tp2600
s(g83
g103
tp2601
(I900
I400
tp2602
s(g20
g17
tp2603
(I1000
I0
tp2604
s(g60
g63
tp2605
(I400
I400
tp2606
s(g17
g57
tp2607
(I600
I600
tp2608
ssb.